

Microchip MPLAB XC8 Assembler V2.10 build 88905656 
                                                                                               Sun Apr 19 10:56:01 2020

Microchip MPLAB XC8 C Compiler v2.10 (Free license) build 20190730164152 Og1 
     1                           	processor	18F26K22
     2                           	fnconf	rparam,??,?,0
     3                           	opt	pw 120
     4                           	opt	flic
     5                           	psect	nvBANK0,global,class=BANK0,space=1,delta=1,lowdata,noexec
     6                           	psect	mediumconst,global,reloc=2,class=MEDIUMCONST,delta=1,noexec
     7                           	psect	cinit,global,reloc=2,class=CODE,delta=1
     8                           	psect	bssCOMRAM,global,class=COMRAM,space=1,delta=1,noexec
     9                           	psect	bssBANK0,global,class=BANK0,space=1,delta=1,lowdata,noexec
    10                           	psect	cstackBANK0,global,class=BANK0,space=1,delta=1,noexec
    11                           	psect	cstackCOMRAM,global,class=COMRAM,space=1,delta=1,noexec
    12                           	psect	text0,global,reloc=2,class=CODE,delta=1
    13                           	psect	text1,global,reloc=2,class=CODE,delta=1,group=2
    14                           	psect	text2,global,reloc=2,class=CODE,delta=1
    15                           	psect	text3,global,reloc=2,class=CODE,delta=1
    16                           	psect	text4,global,reloc=2,class=CODE,delta=1
    17                           	psect	text5,global,reloc=2,class=CODE,delta=1,group=1
    18                           	psect	text6,global,reloc=2,class=CODE,delta=1,group=1
    19                           	psect	text7,global,reloc=2,class=CODE,delta=1
    20                           	psect	text8,global,reloc=2,class=CODE,delta=1
    21                           	psect	text9,global,reloc=2,class=CODE,delta=1,group=2
    22                           	psect	text10,global,reloc=2,class=CODE,delta=1,group=2
    23                           	psect	text11,global,reloc=2,class=CODE,delta=1,group=2
    24                           	psect	text12,global,reloc=2,class=CODE,delta=1
    25                           	psect	text13,global,reloc=2,class=CODE,delta=1
    26                           	psect	text14,global,reloc=2,class=CODE,delta=1
    27                           	psect	text15,global,reloc=2,class=CODE,delta=1
    28                           	psect	text16,global,reloc=2,class=CODE,delta=1
    29                           	psect	text17,global,reloc=2,class=CODE,delta=1
    30                           	psect	text18,global,reloc=2,class=CODE,delta=1
    31                           	psect	text19,global,reloc=2,class=CODE,delta=1
    32                           	psect	text20,global,reloc=2,class=CODE,delta=1
    33                           	psect	text21,global,reloc=2,class=CODE,delta=1
    34                           	psect	text22,global,reloc=2,class=CODE,delta=1
    35                           	psect	text23,global,reloc=2,class=CODE,delta=1
    36                           	psect	text24,global,reloc=2,class=CODE,delta=1
    37                           	psect	text25,global,reloc=2,class=CODE,delta=1
    38                           	psect	text26,global,reloc=2,class=CODE,delta=1
    39                           	psect	text27,global,reloc=2,class=CODE,delta=1
    40                           	psect	text28,global,reloc=2,class=CODE,delta=1
    41                           	psect	text29,global,reloc=2,class=CODE,delta=1
    42                           	psect	text30,global,reloc=2,class=CODE,delta=1
    43                           	psect	text31,global,reloc=2,class=CODE,delta=1
    44                           	psect	text32,global,reloc=2,class=CODE,delta=1
    45                           	psect	intcode,global,reloc=2,class=CODE,delta=1
    46                           	psect	text34,global,reloc=2,class=CODE,delta=1
    47                           	psect	text35,global,reloc=2,class=CODE,delta=1
    48                           	psect	text36,global,reloc=2,class=CODE,delta=1
    49                           	psect	intsave_regs,global,class=BIGRAM,space=1,delta=1,noexec
    50                           	psect	text37,global,reloc=2,class=CODE,delta=1
    51                           	psect	rparam,global,class=COMRAM,space=1,delta=1,noexec
    52                           	psect	temp,global,ovrld,common,class=COMRAM,space=1,delta=1
    53  0000                     
    54                           ; Version 2.10
    55                           ; Generated 31/07/2019 GMT
    56                           ; 
    57                           ; Copyright © 2019, Microchip Technology Inc. and its subsidiaries ("Microchip")
    58                           ; All rights reserved.
    59                           ; 
    60                           ; This software is developed by Microchip Technology Inc. and its subsidiaries ("Microch
      +                          ip").
    61                           ; 
    62                           ; Redistribution and use in source and binary forms, with or without modification, are
    63                           ; permitted provided that the following conditions are met:
    64                           ; 
    65                           ;     1. Redistributions of source code must retain the above copyright notice, this lis
      +                          t of
    66                           ;        conditions and the following disclaimer.
    67                           ; 
    68                           ;     2. Redistributions in binary form must reproduce the above copyright notice, this 
      +                          list
    69                           ;        of conditions and the following disclaimer in the documentation and/or other
    70                           ;        materials provided with the distribution.
    71                           ; 
    72                           ;     3. Microchip's name may not be used to endorse or promote products derived from th
      +                          is
    73                           ;        software without specific prior written permission.
    74                           ; 
    75                           ; THIS SOFTWARE IS PROVIDED BY MICROCHIP "AS IS" AND ANY EXPRESS OR IMPLIED WARRANTIES,
    76                           ; INCLUDING, BUT NOT LIMITED TO, THE IMPLIED WARRANTIES OF MERCHANTABILITY AND FITNESS F
      +                          OR
    77                           ; PURPOSE ARE DISCLAIMED.  IN NO EVENT SHALL MICROCHIP BE LIABLE FOR ANY DIRECT, INDIREC
      +                          T,
    78                           ; INCIDENTAL, SPECIAL, EXEMPLARY, OR CONSEQUENTIAL DAMAGES (INCLUDING BUT NOT LIMITED TO
    79                           ; PROCUREMENT OF SUBSTITUTE GOODS OR SERVICES; LOSS OF USE, DATA OR PROFITS; OR BUSINESS
    80                           ; INTERRUPTION) HOWSOEVER CAUSED AND ON ANY THEORY OF LIABILITY, WHETHER IN CONTRACT, ST
      +                          RICT
    81                           ; LIABILITY, OR TORT (INCLUDING NEGLIGENCE OR OTHERWISE) ARISING IN ANY WAY OUT OF THE U
      +                          SE OF
    82                           ; THIS SOFTWARE, EVEN IF ADVISED OF THE POSSIBILITY OF SUCH DAMAGE.
    83                           ; 
    84                           ; 
    85                           ; Code-generator required, PIC18F26K22 Definitions
    86                           ; 
    87                           ; SFR Addresses
    88  0000                     
    89 ;; Function _EUSART1_DefaultFramingErrorHandler is unused but had its address taken
    90  0000                     
    91 ;; Function _EUSART1_DefaultOverrunErrorHandler is unused but had its address taken
    92  0000                     
    93 ;; Function _EUSART1_DefaultErrorHandler is unused but had its address taken
    94  0000                     
    95                           	psect	nvBANK0
    96  0000AA                     __pnvBANK0:
    97                           	opt callstack 0
    98  0000AA                     _IOCB4_InterruptHandler:
    99                           	opt callstack 0
   100  0000AA                     	ds	2
   101  0000                     _ANSELA	set	3896
   102  0000                     _ANSELB	set	3897
   103  0000                     _ANSELC	set	3898
   104  0000                     _CCPTMRS0bits	set	3913
   105  0000                     _TMR1	set	4046
   106  0000                     _PORTBbits	set	3969
   107  0000                     _LATBbits	set	3978
   108  0000                     _LATAbits	set	3977
   109  0000                     _RCONbits	set	4048
   110  0000                     _T1GCONbits	set	4044
   111  0000                     _T1CONbits	set	4045
   112  0000                     _T1CON	set	4045
   113  0000                     _TMR1L	set	4046
   114  0000                     _TMR1H	set	4047
   115  0000                     _T1GCON	set	4044
   116  0000                     _T0CON	set	4053
   117  0000                     _TMR0L	set	4054
   118  0000                     _TMR0H	set	4055
   119  0000                     _T0CONbits	set	4053
   120  0000                     _INTCONbits	set	4082
   121  0000                     _IOCBbits	set	3938
   122  0000                     _INTCON2bits	set	4081
   123  0000                     _WPUB	set	3937
   124  0000                     _TRISC	set	3988
   125  0000                     _TRISB	set	3987
   126  0000                     _TRISA	set	3986
   127  0000                     _LATC	set	3979
   128  0000                     _LATB	set	3978
   129  0000                     _LATA	set	3977
   130  0000                     _OSCTUNE	set	3995
   131  0000                     _OSCCON2	set	4050
   132  0000                     _OSCCON	set	4051
   133  0000                     _TXREG1	set	4013
   134  0000                     _RCREG1	set	4014
   135  0000                     _RCSTA1bits	set	4011
   136  0000                     _TXSTA1bits	set	4012
   137  0000                     _SPBRGH1	set	4016
   138  0000                     _SPBRG1	set	4015
   139  0000                     _TXSTA1	set	4012
   140  0000                     _RCSTA1	set	4011
   141  0000                     _BAUDCON1	set	4024
   142  0000                     _CCPR2L	set	3943
   143  0000                     _CCPR2H	set	3944
   144  0000                     _PSTR2CON	set	3939
   145  0000                     _PWM2CON	set	3941
   146  0000                     _ECCP2AS	set	3940
   147  0000                     _CCP2CON	set	3942
   148  0000                     _CCPR1L	set	4030
   149  0000                     _CCPR1H	set	4031
   150  0000                     _PSTR1CON	set	4025
   151  0000                     _PWM1CON	set	4023
   152  0000                     _ECCP1AS	set	4022
   153  0000                     _CCP1CON	set	4029
   154  0000                     _T2CONbits	set	4026
   155  0000                     _T2CON	set	4026
   156  0000                     _PIR1bits	set	3998
   157  0000                     _TMR2	set	4028
   158  0000                     _PR2	set	4027
   159  0000                     _PLLRDY	set	32407
   160                           
   161                           	psect	mediumconst
   162  00FE6C                     __pmediumconst:
   163                           	opt callstack 0
   164  00FE6C  00                 	db	0
   165  00FE6D                     STR_5:
   166  00FE6D  2D                 	db	45
   167  00FE6E  2D                 	db	45
   168  00FE6F  2D                 	db	45
   169  00FE70  2D                 	db	45
   170  00FE71  2D                 	db	45
   171  00FE72  2D                 	db	45
   172  00FE73  2D                 	db	45
   173  00FE74  2D                 	db	45
   174  00FE75  2D                 	db	45
   175  00FE76  2D                 	db	45
   176  00FE77  2D                 	db	45
   177  00FE78  2D                 	db	45
   178  00FE79  2D                 	db	45
   179  00FE7A  2D                 	db	45
   180  00FE7B  2D                 	db	45
   181  00FE7C  2D                 	db	45
   182  00FE7D  2D                 	db	45
   183  00FE7E  2D                 	db	45
   184  00FE7F  2D                 	db	45
   185  00FE80  2D                 	db	45
   186  00FE81  2D                 	db	45
   187  00FE82  2D                 	db	45
   188  00FE83  2D                 	db	45
   189  00FE84  2D                 	db	45
   190  00FE85  2D                 	db	45
   191  00FE86  2D                 	db	45
   192  00FE87  2D                 	db	45
   193  00FE88  2D                 	db	45
   194  00FE89  2D                 	db	45
   195  00FE8A  2D                 	db	45
   196  00FE8B  2D                 	db	45
   197  00FE8C  2D                 	db	45
   198  00FE8D  2D                 	db	45
   199  00FE8E  2D                 	db	45
   200  00FE8F  2D                 	db	45
   201  00FE90  2D                 	db	45
   202  00FE91  2D                 	db	45
   203  00FE92  2D                 	db	45
   204  00FE93  2D                 	db	45
   205  00FE94  2D                 	db	45
   206  00FE95  2D                 	db	45
   207  00FE96  2D                 	db	45
   208  00FE97  2D                 	db	45
   209  00FE98  2D                 	db	45
   210  00FE99  2D                 	db	45
   211  00FE9A  2D                 	db	45
   212  00FE9B  2D                 	db	45
   213  00FE9C  2D                 	db	45
   214  00FE9D  2D                 	db	45
   215  00FE9E  0D                 	db	13
   216  00FE9F  0A                 	db	10
   217  00FEA0  00                 	db	0
   218  00FEA1                     STR_11:
   219  00FEA1  72                 	db	114	;'r'
   220  00FEA2  3A                 	db	58	;':'
   221  00FEA3  20                 	db	32
   222  00FEA4  52                 	db	82	;'R'
   223  00FEA5  65                 	db	101	;'e'
   224  00FEA6  61                 	db	97	;'a'
   225  00FEA7  64                 	db	100	;'d'
   226  00FEA8  20                 	db	32
   227  00FEA9  72                 	db	114	;'r'
   228  00FEAA  61                 	db	97	;'a'
   229  00FEAB  6E                 	db	110	;'n'
   230  00FEAC  67                 	db	103	;'g'
   231  00FEAD  65                 	db	101	;'e'
   232  00FEAE  66                 	db	102	;'f'
   233  00FEAF  69                 	db	105	;'i'
   234  00FEB0  6E                 	db	110	;'n'
   235  00FEB1  64                 	db	100	;'d'
   236  00FEB2  65                 	db	101	;'e'
   237  00FEB3  72                 	db	114	;'r'
   238  00FEB4  20                 	db	32
   239  00FEB5  76                 	db	118	;'v'
   240  00FEB6  61                 	db	97	;'a'
   241  00FEB7  6C                 	db	108	;'l'
   242  00FEB8  75                 	db	117	;'u'
   243  00FEB9  65                 	db	101	;'e'
   244  00FEBA  2E                 	db	46
   245  00FEBB  0D                 	db	13
   246  00FEBC  0A                 	db	10
   247  00FEBD  00                 	db	0
   248  00FEBE                     STR_3:
   249  00FEBE  4F                 	db	79	;'O'
   250  00FEBF  62                 	db	98	;'b'
   251  00FEC0  73                 	db	115	;'s'
   252  00FEC1  74                 	db	116	;'t'
   253  00FEC2  61                 	db	97	;'a'
   254  00FEC3  63                 	db	99	;'c'
   255  00FEC4  6C                 	db	108	;'l'
   256  00FEC5  65                 	db	101	;'e'
   257  00FEC6  2D                 	db	45
   258  00FEC7  61                 	db	97	;'a'
   259  00FEC8  76                 	db	118	;'v'
   260  00FEC9  6F                 	db	111	;'o'
   261  00FECA  69                 	db	105	;'i'
   262  00FECB  64                 	db	100	;'d'
   263  00FECC  69                 	db	105	;'i'
   264  00FECD  6E                 	db	110	;'n'
   265  00FECE  67                 	db	103	;'g'
   266  00FECF  20                 	db	32
   267  00FED0  74                 	db	116	;'t'
   268  00FED1  61                 	db	97	;'a'
   269  00FED2  6E                 	db	110	;'n'
   270  00FED3  6B                 	db	107	;'k'
   271  00FED4  20                 	db	32
   272  00FED5  0D                 	db	13
   273  00FED6  0A                 	db	10
   274  00FED7  00                 	db	0
   275  00FED8                     STR_2:
   276  00FED8  46                 	db	70	;'F'
   277  00FED9  69                 	db	105	;'i'
   278  00FEDA  6E                 	db	110	;'n'
   279  00FEDB  61                 	db	97	;'a'
   280  00FEDC  6C                 	db	108	;'l'
   281  00FEDD  20                 	db	32
   282  00FEDE  70                 	db	112	;'p'
   283  00FEDF  72                 	db	114	;'r'
   284  00FEE0  6F                 	db	111	;'o'
   285  00FEE1  6A                 	db	106	;'j'
   286  00FEE2  65                 	db	101	;'e'
   287  00FEE3  63                 	db	99	;'c'
   288  00FEE4  74                 	db	116	;'t'
   289  00FEE5  20                 	db	32
   290  00FEE6  74                 	db	116	;'t'
   291  00FEE7  65                 	db	101	;'e'
   292  00FEE8  72                 	db	114	;'r'
   293  00FEE9  6D                 	db	109	;'m'
   294  00FEEA  69                 	db	105	;'i'
   295  00FEEB  6E                 	db	110	;'n'
   296  00FEEC  61                 	db	97	;'a'
   297  00FEED  6C                 	db	108	;'l'
   298  00FEEE  20                 	db	32
   299  00FEEF  0D                 	db	13
   300  00FEF0  0A                 	db	10
   301  00FEF1  00                 	db	0
   302  00FEF2                     STR_9:
   303  00FEF2  7A                 	db	122	;'z'
   304  00FEF3  3A                 	db	58	;':'
   305  00FEF4  20                 	db	32
   306  00FEF5  43                 	db	67	;'C'
   307  00FEF6  6C                 	db	108	;'l'
   308  00FEF7  65                 	db	101	;'e'
   309  00FEF8  61                 	db	97	;'a'
   310  00FEF9  72                 	db	114	;'r'
   311  00FEFA  20                 	db	32
   312  00FEFB  74                 	db	116	;'t'
   313  00FEFC  68                 	db	104	;'h'
   314  00FEFD  65                 	db	101	;'e'
   315  00FEFE  20                 	db	32
   316  00FEFF  74                 	db	116	;'t'
   317  00FF00  65                 	db	101	;'e'
   318  00FF01  72                 	db	114	;'r'
   319  00FF02  6D                 	db	109	;'m'
   320  00FF03  69                 	db	105	;'i'
   321  00FF04  6E                 	db	110	;'n'
   322  00FF05  61                 	db	97	;'a'
   323  00FF06  6C                 	db	108	;'l'
   324  00FF07  2E                 	db	46
   325  00FF08  0D                 	db	13
   326  00FF09  0A                 	db	10
   327  00FF0A  00                 	db	0
   328  00FF0B                     STR_12:
   329  00FF0B  63                 	db	99	;'c'
   330  00FF0C  3A                 	db	58	;':'
   331  00FF0D  20                 	db	32
   332  00FF0E  54                 	db	84	;'T'
   333  00FF0F  65                 	db	101	;'e'
   334  00FF10  73                 	db	115	;'s'
   335  00FF11  74                 	db	116	;'t'
   336  00FF12  20                 	db	32
   337  00FF13  74                 	db	116	;'t'
   338  00FF14  69                 	db	105	;'i'
   339  00FF15  6D                 	db	109	;'m'
   340  00FF16  65                 	db	101	;'e'
   341  00FF17  72                 	db	114	;'r'
   342  00FF18  20                 	db	32
   343  00FF19  70                 	db	112	;'p'
   344  00FF1A  65                 	db	101	;'e'
   345  00FF1B  72                 	db	114	;'r'
   346  00FF1C  69                 	db	105	;'i'
   347  00FF1D  6F                 	db	111	;'o'
   348  00FF1E  64                 	db	100	;'d'
   349  00FF1F  2E                 	db	46
   350  00FF20  0D                 	db	13
   351  00FF21  0A                 	db	10
   352  00FF22  00                 	db	0
   353  00FF23                     STR_20:
   354  00FF23  45                 	db	69	;'E'
   355  00FF24  6E                 	db	110	;'n'
   356  00FF25  74                 	db	116	;'t'
   357  00FF26  65                 	db	101	;'e'
   358  00FF27  72                 	db	114	;'r'
   359  00FF28  69                 	db	105	;'i'
   360  00FF29  6E                 	db	110	;'n'
   361  00FF2A  67                 	db	103	;'g'
   362  00FF2B  20                 	db	32
   363  00FF2C  66                 	db	102	;'f'
   364  00FF2D  6F                 	db	111	;'o'
   365  00FF2E  72                 	db	114	;'r'
   366  00FF2F  20                 	db	32
   367  00FF30  6C                 	db	108	;'l'
   368  00FF31  6F                 	db	111	;'o'
   369  00FF32  6F                 	db	111	;'o'
   370  00FF33  70                 	db	112	;'p'
   371  00FF34  2E                 	db	46
   372  00FF35  2E                 	db	46
   373  00FF36  2E                 	db	46
   374  00FF37  0D                 	db	13
   375  00FF38  0A                 	db	10
   376  00FF39  00                 	db	0
   377  00FF3A                     STR_17:
   378  00FF3A  4D                 	db	77	;'M'
   379  00FF3B  6F                 	db	111	;'o'
   380  00FF3C  74                 	db	116	;'t'
   381  00FF3D  6F                 	db	111	;'o'
   382  00FF3E  72                 	db	114	;'r'
   383  00FF3F  73                 	db	115	;'s'
   384  00FF40  20                 	db	32
   385  00FF41  74                 	db	116	;'t'
   386  00FF42  6F                 	db	111	;'o'
   387  00FF43  67                 	db	103	;'g'
   388  00FF44  67                 	db	103	;'g'
   389  00FF45  6C                 	db	108	;'l'
   390  00FF46  65                 	db	101	;'e'
   391  00FF47  64                 	db	100	;'d'
   392  00FF48  20                 	db	32
   393  00FF49  6F                 	db	111	;'o'
   394  00FF4A  66                 	db	102	;'f'
   395  00FF4B  66                 	db	102	;'f'
   396  00FF4C  2E                 	db	46
   397  00FF4D  0D                 	db	13
   398  00FF4E  0A                 	db	10
   399  00FF4F  00                 	db	0
   400  00FF50                     STR_8:
   401  00FF50  5A                 	db	90	;'Z'
   402  00FF51  3A                 	db	58	;':'
   403  00FF52  20                 	db	32
   404  00FF53  52                 	db	82	;'R'
   405  00FF54  65                 	db	101	;'e'
   406  00FF55  73                 	db	115	;'s'
   407  00FF56  65                 	db	101	;'e'
   408  00FF57  74                 	db	116	;'t'
   409  00FF58  20                 	db	32
   410  00FF59  70                 	db	112	;'p'
   411  00FF5A  72                 	db	114	;'r'
   412  00FF5B  6F                 	db	111	;'o'
   413  00FF5C  63                 	db	99	;'c'
   414  00FF5D  65                 	db	101	;'e'
   415  00FF5E  73                 	db	115	;'s'
   416  00FF5F  73                 	db	115	;'s'
   417  00FF60  6F                 	db	111	;'o'
   418  00FF61  72                 	db	114	;'r'
   419  00FF62  2E                 	db	46
   420  00FF63  0D                 	db	13
   421  00FF64  0A                 	db	10
   422  00FF65  00                 	db	0
   423  00FF66                     STR_18:
   424  00FF66  4D                 	db	77	;'M'
   425  00FF67  6F                 	db	111	;'o'
   426  00FF68  74                 	db	116	;'t'
   427  00FF69  6F                 	db	111	;'o'
   428  00FF6A  72                 	db	114	;'r'
   429  00FF6B  73                 	db	115	;'s'
   430  00FF6C  20                 	db	32
   431  00FF6D  74                 	db	116	;'t'
   432  00FF6E  6F                 	db	111	;'o'
   433  00FF6F  67                 	db	103	;'g'
   434  00FF70  67                 	db	103	;'g'
   435  00FF71  6C                 	db	108	;'l'
   436  00FF72  65                 	db	101	;'e'
   437  00FF73  64                 	db	100	;'d'
   438  00FF74  20                 	db	32
   439  00FF75  6F                 	db	111	;'o'
   440  00FF76  6E                 	db	110	;'n'
   441  00FF77  2E                 	db	46
   442  00FF78  0D                 	db	13
   443  00FF79  0A                 	db	10
   444  00FF7A  00                 	db	0
   445  00FF7B                     STR_10:
   446  00FF7B  74                 	db	116	;'t'
   447  00FF7C  3A                 	db	58	;':'
   448  00FF7D  20                 	db	32
   449  00FF7E  54                 	db	84	;'T'
   450  00FF7F  6F                 	db	111	;'o'
   451  00FF80  67                 	db	103	;'g'
   452  00FF81  67                 	db	103	;'g'
   453  00FF82  6C                 	db	108	;'l'
   454  00FF83  65                 	db	101	;'e'
   455  00FF84  20                 	db	32
   456  00FF85  6D                 	db	109	;'m'
   457  00FF86  6F                 	db	111	;'o'
   458  00FF87  74                 	db	116	;'t'
   459  00FF88  6F                 	db	111	;'o'
   460  00FF89  72                 	db	114	;'r'
   461  00FF8A  73                 	db	115	;'s'
   462  00FF8B  2E                 	db	46
   463  00FF8C  0D                 	db	13
   464  00FF8D  0A                 	db	10
   465  00FF8E  00                 	db	0
   466  00FF8F                     STR_1:
   467  00FF8F  44                 	db	68	;'D'
   468  00FF90  65                 	db	101	;'e'
   469  00FF91  76                 	db	118	;'v'
   470  00FF92  65                 	db	101	;'e'
   471  00FF93  6C                 	db	108	;'l'
   472  00FF94  6F                 	db	111	;'o'
   473  00FF95  70                 	db	112	;'p'
   474  00FF96  6D                 	db	109	;'m'
   475  00FF97  65                 	db	101	;'e'
   476  00FF98  6E                 	db	110	;'n'
   477  00FF99  74                 	db	116	;'t'
   478  00FF9A  20                 	db	32
   479  00FF9B  42                 	db	66	;'B'
   480  00FF9C  6F                 	db	111	;'o'
   481  00FF9D  61                 	db	97	;'a'
   482  00FF9E  72                 	db	114	;'r'
   483  00FF9F  64                 	db	100	;'d'
   484  00FFA0  0D                 	db	13
   485  00FFA1  0A                 	db	10
   486  00FFA2  00                 	db	0
   487  00FFA3  45                 	db	69	;'E'
   488  00FFA4  78                 	db	120	;'x'
   489  00FFA5  69                 	db	105	;'i'
   490  00FFA6  74                 	db	116	;'t'
   491  00FFA7  65                 	db	101	;'e'
   492  00FFA8  64                 	db	100	;'d'
   493  00FFA9  20                 	db	32
   494  00FFAA  66                 	db	102	;'f'
   495  00FFAB  6F                 	db	111	;'o'
   496  00FFAC  72                 	db	114	;'r'
   497  00FFAD  20                 	db	32
   498  00FFAE  6C                 	db	108	;'l'
   499  00FFAF  6F                 	db	111	;'o'
   500  00FFB0  6F                 	db	111	;'o'
   501  00FFB1  70                 	db	112	;'p'
   502  00FFB2  2E                 	db	46
   503  00FFB3  0D                 	db	13
   504  00FFB4  0A                 	db	10
   505  00FFB5  00                 	db	0
   506  00FFB6                     STR_22:
   507  00FFB6  55                 	db	85	;'U'
   508  00FFB7  6E                 	db	110	;'n'
   509  00FFB8  6B                 	db	107	;'k'
   510  00FFB9  6E                 	db	110	;'n'
   511  00FFBA  6F                 	db	111	;'o'
   512  00FFBB  77                 	db	119	;'w'
   513  00FFBC  6E                 	db	110	;'n'
   514  00FFBD  20                 	db	32
   515  00FFBE  6B                 	db	107	;'k'
   516  00FFBF  65                 	db	101	;'e'
   517  00FFC0  79                 	db	121	;'y'
   518  00FFC1  20                 	db	32
   519  00FFC2  25                 	db	37
   520  00FFC3  63                 	db	99	;'c'
   521  00FFC4  0D                 	db	13
   522  00FFC5  0A                 	db	10
   523  00FFC6  00                 	db	0
   524  00FFC7                     STR_19:
   525  00FFC7  44                 	db	68	;'D'
   526  00FFC8  69                 	db	105	;'i'
   527  00FFC9  73                 	db	115	;'s'
   528  00FFCA  74                 	db	116	;'t'
   529  00FFCB  61                 	db	97	;'a'
   530  00FFCC  6E                 	db	110	;'n'
   531  00FFCD  63                 	db	99	;'c'
   532  00FFCE  65                 	db	101	;'e'
   533  00FFCF  20                 	db	32
   534  00FFD0  3D                 	db	61	;'='
   535  00FFD1  20                 	db	32
   536  00FFD2  25                 	db	37
   537  00FFD3  75                 	db	117	;'u'
   538  00FFD4  0D                 	db	13
   539  00FFD5  0A                 	db	10
   540  00FFD6  00                 	db	0
   541  00FFD7                     STR_6:
   542  00FFD7  3F                 	db	63	;'?'
   543  00FFD8  3A                 	db	58	;':'
   544  00FFD9  20                 	db	32
   545  00FFDA  68                 	db	104	;'h'
   546  00FFDB  65                 	db	101	;'e'
   547  00FFDC  6C                 	db	108	;'l'
   548  00FFDD  70                 	db	112	;'p'
   549  00FFDE  20                 	db	32
   550  00FFDF  6D                 	db	109	;'m'
   551  00FFE0  65                 	db	101	;'e'
   552  00FFE1  6E                 	db	110	;'n'
   553  00FFE2  75                 	db	117	;'u'
   554  00FFE3  0D                 	db	13
   555  00FFE4  0A                 	db	10
   556  00FFE5  00                 	db	0
   557  00FFE6                     STR_14:
   558  00FFE6  6F                 	db	111	;'o'
   559  00FFE7  3A                 	db	58	;':'
   560  00FFE8  20                 	db	32
   561  00FFE9  20                 	db	32
   562  00FFEA  20                 	db	32
   563  00FFEB  20                 	db	32
   564  00FFEC  20                 	db	32
   565  00FFED  20                 	db	32
   566  00FFEE  6F                 	db	111	;'o'
   567  00FFEF  6B                 	db	107	;'k'
   568  00FFF0  0D                 	db	13
   569  00FFF1  0A                 	db	10
   570  00FFF2  00                 	db	0
   571  00FFF3                     STR_7:
   572  00FFF3  6F                 	db	111	;'o'
   573  00FFF4  3A                 	db	58	;':'
   574  00FFF5  20                 	db	32
   575  00FFF6  6B                 	db	107	;'k'
   576  00FFF7  0D                 	db	13
   577  00FFF8  0A                 	db	10
   578  00FFF9  00                 	db	0
   579  00FFFA                     STR_4:
   580  00FFFA  0D                 	db	13
   581  00FFFB  0A                 	db	10
   582  00FFFC  3E                 	db	62	;'>'
   583  00FFFD  20                 	db	32
   584  00FFFE  00                 	db	0
   585  0000                     
   586                           ; #config settings
   587  00FFFF  00                 	db	0	; dummy byte at the end
   588  0000                     
   589                           	psect	cinit
   590  000D82                     __pcinit:
   591                           	opt callstack 0
   592  000D82                     start_initialization:
   593                           	opt callstack 0
   594  000D82                     __initialization:
   595                           	opt callstack 0
   596                           
   597                           ; Clear objects allocated to BANK0 (61 bytes)
   598  000D82  EE00  F060         	lfsr	0,__pbssBANK0
   599  000D86  0E3D               	movlw	61
   600  000D88                     clear_0:
   601  000D88  6AEE               	clrf	postinc0,c
   602  000D8A  06E8               	decf	wreg,f,c
   603  000D8C  E1FD               	bnz	clear_0
   604                           
   605                           ; Clear objects allocated to COMRAM (2 bytes)
   606  000D8E  6A5C               	clrf	(__pbssCOMRAM+1)& (0+255),c
   607  000D90  6A5B               	clrf	__pbssCOMRAM& (0+255),c
   608  000D92                     end_of_initialization:
   609                           	opt callstack 0
   610  000D92                     __end_of__initialization:
   611                           	opt callstack 0
   612  000D92  905D               	bcf	int$flags,0,c	;clear compiler interrupt flag (level 1)
   613  000D94  925D               	bcf	int$flags,1,c	;clear compiler interrupt flag (level 2)
   614  000D96  0100               	movlb	0
   615  000D98  EF21  F000         	goto	_main	;jump to C main() function
   616                           
   617                           	psect	bssCOMRAM
   618  00005B                     __pbssCOMRAM:
   619                           	opt callstack 0
   620  00005B                     _timer0ReloadVal:
   621                           	opt callstack 0
   622  00005B                     	ds	2
   623                           
   624                           	psect	bssBANK0
   625  000060                     __pbssBANK0:
   626                           	opt callstack 0
   627  000060                     _nout:
   628                           	opt callstack 0
   629  000060                     	ds	2
   630  000062                     _width:
   631                           	opt callstack 0
   632  000062                     	ds	2
   633  000064                     _prec:
   634                           	opt callstack 0
   635  000064                     	ds	2
   636  000066                     _flags:
   637                           	opt callstack 0
   638  000066                     	ds	2
   639  000068                     _j:
   640                           	opt callstack 0
   641  000068                     	ds	2
   642  00006A                     _i:
   643                           	opt callstack 0
   644  00006A                     	ds	2
   645  00006C                     _end:
   646                           	opt callstack 0
   647  00006C                     	ds	2
   648  00006E                     _start:
   649                           	opt callstack 0
   650  00006E                     	ds	2
   651  000070                     _distance:
   652                           	opt callstack 0
   653  000070                     	ds	2
   654  000072                     _timer1ReloadVal:
   655                           	opt callstack 0
   656  000072                     	ds	2
   657  000074                     _EUSART1_ErrorHandler:
   658                           	opt callstack 0
   659  000074                     	ds	2
   660  000076                     _EUSART1_OverrunErrorHandler:
   661                           	opt callstack 0
   662  000076                     	ds	2
   663  000078                     _EUSART1_FramingErrorHandler:
   664                           	opt callstack 0
   665  000078                     	ds	2
   666  00007A                     _echo_received:
   667                           	opt callstack 0
   668  00007A                     	ds	1
   669  00007B                     _TMR0ISRstate:
   670                           	opt callstack 0
   671  00007B                     	ds	1
   672  00007C                     _eusart1RxLastError:
   673                           	opt callstack 0
   674  00007C                     	ds	1
   675  00007D                     _dbuf:
   676                           	opt callstack 0
   677  00007D                     	ds	32
   678                           
   679                           	psect	cstackBANK0
   680  00009D                     __pcstackBANK0:
   681                           	opt callstack 0
   682  00009D                     ?_printf:
   683                           	opt callstack 0
   684  00009D                     printf@fmt:
   685                           	opt callstack 0
   686                           
   687                           ; 2 bytes @ 0x0
   688  00009D                     	ds	6
   689  0000A3                     printf@ap:
   690                           	opt callstack 0
   691                           
   692                           ; 2 bytes @ 0x6
   693  0000A3                     	ds	2
   694  0000A5                     ??_main:
   695                           
   696                           ; 1 bytes @ 0x8
   697  0000A5                     	ds	2
   698  0000A7                     main@motorsToggled:
   699                           	opt callstack 0
   700                           
   701                           ; 1 bytes @ 0xA
   702  0000A7                     	ds	1
   703  0000A8                     main@cmd:
   704                           	opt callstack 0
   705                           
   706                           ; 1 bytes @ 0xB
   707  0000A8                     	ds	1
   708  0000A9                     main@i:
   709                           	opt callstack 0
   710                           
   711                           ; 1 bytes @ 0xC
   712  0000A9                     	ds	1
   713                           
   714                           	psect	cstackCOMRAM
   715  000001                     __pcstackCOMRAM:
   716                           	opt callstack 0
   717  000001                     ??_INTERRUPT_InterruptManager:
   718  000001                     
   719                           ; 1 bytes @ 0x0
   720  000001                     	ds	2
   721  000003                     ??_TMR0_Initialize:
   722  000003                     ?_strlen:
   723                           	opt callstack 0
   724  000003                     ?___lodiv:
   725                           	opt callstack 0
   726  000003                     ?___lomod:
   727                           	opt callstack 0
   728  000003                     EUSART1_Write@txData:
   729                           	opt callstack 0
   730  000003                     EPWM1_LoadDutyValue@dutyValue:
   731                           	opt callstack 0
   732  000003                     EPWM2_LoadDutyValue@dutyValue:
   733                           	opt callstack 0
   734  000003                     EUSART1_SetFramingErrorHandler@interruptHandler:
   735                           	opt callstack 0
   736  000003                     EUSART1_SetOverrunErrorHandler@interruptHandler:
   737                           	opt callstack 0
   738  000003                     EUSART1_SetErrorHandler@interruptHandler:
   739                           	opt callstack 0
   740  000003                     IOCB4_SetInterruptHandler@InterruptHandler:
   741                           	opt callstack 0
   742  000003                     TMR0_WriteTimer@timerVal:
   743                           	opt callstack 0
   744  000003                     strlen@s:
   745                           	opt callstack 0
   746  000003                     ___lodiv@dividend:
   747                           	opt callstack 0
   748  000003                     ___lomod@dividend:
   749                           	opt callstack 0
   750                           
   751                           ; 8 bytes @ 0x2
   752  000003                     	ds	1
   753  000004                     putch@txData:
   754                           	opt callstack 0
   755                           
   756                           ; 1 bytes @ 0x3
   757  000004                     	ds	1
   758  000005                     ??_EPWM1_LoadDutyValue:
   759  000005                     ??_EPWM2_LoadDutyValue:
   760  000005                     fputc@c:
   761                           	opt callstack 0
   762  000005                     strlen@a:
   763                           	opt callstack 0
   764                           
   765                           ; 2 bytes @ 0x4
   766  000005                     	ds	2
   767  000007                     fputc@fp:
   768                           	opt callstack 0
   769                           
   770                           ; 2 bytes @ 0x6
   771  000007                     	ds	2
   772  000009                     ??_fputc:
   773                           
   774                           ; 1 bytes @ 0x8
   775  000009                     	ds	2
   776  00000B                     ___lodiv@divisor:
   777                           	opt callstack 0
   778  00000B                     ___lomod@divisor:
   779                           	opt callstack 0
   780                           
   781                           ; 8 bytes @ 0xA
   782  00000B                     	ds	3
   783  00000E                     fputs@s:
   784                           	opt callstack 0
   785                           
   786                           ; 2 bytes @ 0xD
   787  00000E                     	ds	2
   788  000010                     fputs@fp:
   789                           	opt callstack 0
   790                           
   791                           ; 2 bytes @ 0xF
   792  000010                     	ds	2
   793  000012                     fputs@c:
   794                           	opt callstack 0
   795                           
   796                           ; 1 bytes @ 0x11
   797  000012                     	ds	1
   798  000013                     ___lomod@counter:
   799                           	opt callstack 0
   800  000013                     fputs@i:
   801                           	opt callstack 0
   802  000013                     ___lodiv@quotient:
   803                           	opt callstack 0
   804                           
   805                           ; 8 bytes @ 0x12
   806  000013                     	ds	2
   807  000015                     ?_pad:
   808                           	opt callstack 0
   809  000015                     pad@fp:
   810                           	opt callstack 0
   811                           
   812                           ; 2 bytes @ 0x14
   813  000015                     	ds	2
   814  000017                     pad@buf:
   815                           	opt callstack 0
   816                           
   817                           ; 2 bytes @ 0x16
   818  000017                     	ds	2
   819  000019                     pad@p:
   820                           	opt callstack 0
   821                           
   822                           ; 2 bytes @ 0x18
   823  000019                     	ds	2
   824  00001B                     ??_pad:
   825  00001B                     ___lodiv@counter:
   826                           	opt callstack 0
   827                           
   828                           ; 1 bytes @ 0x1A
   829  00001B                     	ds	1
   830  00001C                     pad@i:
   831                           	opt callstack 0
   832                           
   833                           ; 2 bytes @ 0x1B
   834  00001C                     	ds	2
   835  00001E                     pad@w:
   836                           	opt callstack 0
   837                           
   838                           ; 2 bytes @ 0x1D
   839  00001E                     	ds	2
   840  000020                     ?_ctoa:
   841                           	opt callstack 0
   842  000020                     ?_utoa:
   843                           	opt callstack 0
   844  000020                     ctoa@fp:
   845                           	opt callstack 0
   846  000020                     utoa@fp:
   847                           	opt callstack 0
   848                           
   849                           ; 2 bytes @ 0x1F
   850  000020                     	ds	2
   851  000022                     ctoa@c:
   852                           	opt callstack 0
   853  000022                     utoa@d:
   854                           	opt callstack 0
   855                           
   856                           ; 8 bytes @ 0x21
   857  000022                     	ds	1
   858  000023                     ctoa@w:
   859                           	opt callstack 0
   860                           
   861                           ; 2 bytes @ 0x22
   862  000023                     	ds	7
   863  00002A                     ??_utoa:
   864                           
   865                           ; 1 bytes @ 0x29
   866  00002A                     	ds	8
   867  000032                     utoa@p:
   868                           	opt callstack 0
   869                           
   870                           ; 2 bytes @ 0x31
   871  000032                     	ds	2
   872  000034                     utoa@w:
   873                           	opt callstack 0
   874                           
   875                           ; 2 bytes @ 0x33
   876  000034                     	ds	2
   877  000036                     utoa@n:
   878                           	opt callstack 0
   879                           
   880                           ; 8 bytes @ 0x35
   881  000036                     	ds	8
   882  00003E                     utoa@i:
   883                           	opt callstack 0
   884                           
   885                           ; 2 bytes @ 0x3D
   886  00003E                     	ds	2
   887  000040                     ?_vfpfcnvrt:
   888                           	opt callstack 0
   889  000040                     vfpfcnvrt@fp:
   890                           	opt callstack 0
   891                           
   892                           ; 2 bytes @ 0x3F
   893  000040                     	ds	2
   894  000042                     vfpfcnvrt@fmt:
   895                           	opt callstack 0
   896                           
   897                           ; 2 bytes @ 0x41
   898  000042                     	ds	2
   899  000044                     vfpfcnvrt@ap:
   900                           	opt callstack 0
   901                           
   902                           ; 2 bytes @ 0x43
   903  000044                     	ds	2
   904  000046                     ??_vfpfcnvrt:
   905                           
   906                           ; 1 bytes @ 0x45
   907  000046                     	ds	4
   908  00004A                     vfpfcnvrt@llu:
   909                           	opt callstack 0
   910                           
   911                           ; 8 bytes @ 0x49
   912  00004A                     	ds	8
   913  000052                     vfpfcnvrt@c:
   914                           	opt callstack 0
   915                           
   916                           ; 1 bytes @ 0x51
   917  000052                     	ds	1
   918  000053                     ?_vfprintf:
   919                           	opt callstack 0
   920  000053                     vfprintf@fp:
   921                           	opt callstack 0
   922                           
   923                           ; 2 bytes @ 0x52
   924  000053                     	ds	2
   925  000055                     vfprintf@fmt:
   926                           	opt callstack 0
   927                           
   928                           ; 2 bytes @ 0x54
   929  000055                     	ds	2
   930  000057                     vfprintf@ap:
   931                           	opt callstack 0
   932                           
   933                           ; 2 bytes @ 0x56
   934  000057                     	ds	2
   935  000059                     vfprintf@cfmt:
   936                           	opt callstack 0
   937                           
   938                           ; 2 bytes @ 0x58
   939  000059                     	ds	2
   940  00005B                     
   941                           ; 1 bytes @ 0x5A
   942 ;;
   943 ;;Main: autosize = 0, tempsize = 2, incstack = 0, save=0
   944 ;;
   945 ;; *************** function _main *****************
   946 ;; Defined at:
   947 ;;		line 49 in file "main.c"
   948 ;; Parameters:    Size  Location     Type
   949 ;;		None
   950 ;; Auto vars:     Size  Location     Type
   951 ;;  i               1   12[BANK0 ] unsigned char 
   952 ;;  cmd             1   11[BANK0 ] unsigned char 
   953 ;;  motorsToggle    1   10[BANK0 ] unsigned char 
   954 ;; Return value:  Size  Location     Type
   955 ;;                  1    wreg      void 
   956 ;; Registers used:
   957 ;;		wreg, fsr1l, fsr1h, fsr2l, fsr2h, status,2, status,0, tblptrl, tblptrh, tblptru, cstack
   958 ;; Tracked objects:
   959 ;;		On entry : 0/0
   960 ;;		On exit  : 0/0
   961 ;;		Unchanged: 0/0
   962 ;; Data sizes:     COMRAM   BANK0   BANK1   BANK2   BANK3   BANK4   BANK5   BANK6   BANK7   BANK8   BANK9  BANK10  BANK1
      +1  BANK12  BANK13  BANK14  BANK15
   963 ;;      Params:         0       0       0       0       0       0       0       0       0       0       0       0       
      +0       0       0       0       0
   964 ;;      Locals:         0       3       0       0       0       0       0       0       0       0       0       0       
      +0       0       0       0       0
   965 ;;      Temps:          0       2       0       0       0       0       0       0       0       0       0       0       
      +0       0       0       0       0
   966 ;;      Totals:         0       5       0       0       0       0       0       0       0       0       0       0       
      +0       0       0       0       0
   967 ;;Total ram usage:        5 bytes
   968 ;; Hardware stack levels required when called:   13
   969 ;; This function calls:
   970 ;;		_EPWM1_LoadDutyValue
   971 ;;		_EPWM2_LoadDutyValue
   972 ;;		_EUSART1_Read
   973 ;;		_EUSART1_is_rx_ready
   974 ;;		_SYSTEM_Initialize
   975 ;;		_TMR0_WriteTimer
   976 ;;		_printf
   977 ;; This function is called by:
   978 ;;		Startup code after reset
   979 ;; This function uses a non-reentrant model
   980 ;;
   981                           
   982                           	psect	text0
   983  000042                     __ptext0:
   984                           	opt callstack 0
   985  000042                     _main:
   986                           	opt callstack 18
   987  000042                     
   988                           ;main.c: 50: ;main.c: 51: ;main.c: 52: 
   989  000042  0E00               	movlw	0
   990  000044  0100               	movlb	0	; () banked
   991  000046  6FA7               	movwf	main@motorsToggled& (0+255),b
   992  000048                     
   993                           ; BSR set to: 0
   994                           ;main.c: 54:    case '?':
   995  000048  EC5F  F006         	call	_SYSTEM_Initialize	;wreg free
   996  00004C  9089               	bcf	137,0,c	;volatile
   997  00004E                     
   998                           ;main.c: 57:                 printf("o: k\r\n");
   999  00004E  0E00               	movlw	0
  1000  000050  6E04               	movwf	(EPWM1_LoadDutyValue@dutyValue+1)^0,c
  1001  000052  6803               	setf	EPWM1_LoadDutyValue@dutyValue^0,c
  1002  000054  EC07  F006         	call	_EPWM1_LoadDutyValue	;wreg free
  1003  000058                     
  1004                           ;main.c: 58:                 printf("Z: Reset processor.\r\n");
  1005  000058  0E00               	movlw	0
  1006  00005A  6E04               	movwf	(EPWM2_LoadDutyValue@dutyValue+1)^0,c
  1007  00005C  6803               	setf	EPWM2_LoadDutyValue@dutyValue^0,c
  1008  00005E  ECEF  F005         	call	_EPWM2_LoadDutyValue	;wreg free
  1009  000062                     
  1010                           ;main.c: 60:                 printf("t: Toggle motors.\r\n");
  1011  000062  0E8F               	movlw	low STR_1
  1012  000064  0100               	movlb	0	; () banked
  1013  000066  6F9D               	movwf	printf@fmt& (0+255),b
  1014  000068  0EFF               	movlw	high STR_1
  1015  00006A  6F9E               	movwf	(printf@fmt+1)& (0+255),b
  1016  00006C  EC4B  F006         	call	_printf	;wreg free
  1017  000070                     
  1018                           ;main.c: 61:                 printf("r: Read rangefinder value.\r\n");
  1019  000070  0ED8               	movlw	low STR_2
  1020  000072  0100               	movlb	0	; () banked
  1021  000074  6F9D               	movwf	printf@fmt& (0+255),b
  1022  000076  0EFE               	movlw	high STR_2
  1023  000078  6F9E               	movwf	(printf@fmt+1)& (0+255),b
  1024  00007A  EC4B  F006         	call	_printf	;wreg free
  1025  00007E                     
  1026                           ;main.c: 62:                 printf("c: Test timer period.\r\n");
  1027  00007E  0EBE               	movlw	low STR_3
  1028  000080  0100               	movlb	0	; () banked
  1029  000082  6F9D               	movwf	printf@fmt& (0+255),b
  1030  000084  0EFE               	movlw	high STR_3
  1031  000086  6F9E               	movwf	(printf@fmt+1)& (0+255),b
  1032  000088  EC4B  F006         	call	_printf	;wreg free
  1033  00008C                     
  1034                           ;main.c: 63:                 printf("-------------------------------------------------\r
      +                          \n");
  1035  00008C  0EFA               	movlw	low STR_4
  1036  00008E  0100               	movlb	0	; () banked
  1037  000090  6F9D               	movwf	printf@fmt& (0+255),b
  1038  000092  0EFF               	movlw	high STR_4
  1039  000094  6F9E               	movwf	(printf@fmt+1)& (0+255),b
  1040  000096  EC4B  F006         	call	_printf	;wreg free
  1041  00009A                     
  1042                           ;main.c: 67: 
  1043  00009A  8CF2               	bsf	242,6,c	;volatile
  1044  00009C                     
  1045                           ;main.c: 68: 
  1046  00009C  8EF2               	bsf	242,7,c	;volatile
  1047  00009E                     l2333:
  1048                           
  1049                           ;main.c: 71:                 break;
  1050  00009E  ECE4  F006         	call	_EUSART1_is_rx_ready	;wreg free
  1051  0000A2  0900               	iorlw	0
  1052  0000A4  B4D8               	btfsc	status,2,c
  1053  0000A6  EF57  F000         	goto	u1051
  1054  0000AA  EF59  F000         	goto	u1050
  1055  0000AE                     u1051:
  1056  0000AE  EF4F  F000         	goto	l2333
  1057  0000B2                     u1050:
  1058  0000B2                     
  1059                           ;main.c: 72: 
  1060  0000B2  EC36  F006         	call	_EUSART1_Read	;wreg free
  1061  0000B6  0100               	movlb	0	; () banked
  1062  0000B8  6FA8               	movwf	main@cmd& (0+255),b
  1063                           
  1064                           ;main.c: 73: 
  1065  0000BA  EF53  F001         	goto	l2421
  1066  0000BE                     l2337:
  1067                           
  1068                           ; BSR set to: 0
  1069                           ;main.c: 79:                 break;
  1070  0000BE  0E6D               	movlw	low STR_5
  1071  0000C0  6F9D               	movwf	printf@fmt& (0+255),b
  1072  0000C2  0EFE               	movlw	high STR_5
  1073  0000C4  6F9E               	movwf	(printf@fmt+1)& (0+255),b
  1074  0000C6  EC4B  F006         	call	_printf	;wreg free
  1075                           
  1076                           ;main.c: 80: 
  1077  0000CA  0ED7               	movlw	low STR_6
  1078  0000CC  0100               	movlb	0	; () banked
  1079  0000CE  6F9D               	movwf	printf@fmt& (0+255),b
  1080  0000D0  0EFF               	movlw	high STR_6
  1081  0000D2  6F9E               	movwf	(printf@fmt+1)& (0+255),b
  1082  0000D4  EC4B  F006         	call	_printf	;wreg free
  1083                           
  1084                           ;main.c: 81: 
  1085  0000D8  0EF3               	movlw	low STR_7
  1086  0000DA  0100               	movlb	0	; () banked
  1087  0000DC  6F9D               	movwf	printf@fmt& (0+255),b
  1088  0000DE  0EFF               	movlw	high STR_7
  1089  0000E0  6F9E               	movwf	(printf@fmt+1)& (0+255),b
  1090  0000E2  EC4B  F006         	call	_printf	;wreg free
  1091                           
  1092                           ;main.c: 82: 
  1093  0000E6  0E50               	movlw	low STR_8
  1094  0000E8  0100               	movlb	0	; () banked
  1095  0000EA  6F9D               	movwf	printf@fmt& (0+255),b
  1096  0000EC  0EFF               	movlw	high STR_8
  1097  0000EE  6F9E               	movwf	(printf@fmt+1)& (0+255),b
  1098  0000F0  EC4B  F006         	call	_printf	;wreg free
  1099                           
  1100                           ;main.c: 83: 
  1101  0000F4  0EF2               	movlw	low STR_9
  1102  0000F6  0100               	movlb	0	; () banked
  1103  0000F8  6F9D               	movwf	printf@fmt& (0+255),b
  1104  0000FA  0EFE               	movlw	high STR_9
  1105  0000FC  6F9E               	movwf	(printf@fmt+1)& (0+255),b
  1106  0000FE  EC4B  F006         	call	_printf	;wreg free
  1107                           
  1108                           ;main.c: 84:             case 'z':
  1109  000102  0E7B               	movlw	low STR_10
  1110  000104  0100               	movlb	0	; () banked
  1111  000106  6F9D               	movwf	printf@fmt& (0+255),b
  1112  000108  0EFF               	movlw	high STR_10
  1113  00010A  6F9E               	movwf	(printf@fmt+1)& (0+255),b
  1114  00010C  EC4B  F006         	call	_printf	;wreg free
  1115                           
  1116                           ;main.c: 85:                 for (i=0; i<40; i++) printf("\n");
  1117  000110  0EA1               	movlw	low STR_11
  1118  000112  0100               	movlb	0	; () banked
  1119  000114  6F9D               	movwf	printf@fmt& (0+255),b
  1120  000116  0EFE               	movlw	high STR_11
  1121  000118  6F9E               	movwf	(printf@fmt+1)& (0+255),b
  1122  00011A  EC4B  F006         	call	_printf	;wreg free
  1123                           
  1124                           ;main.c: 86:                 break;
  1125  00011E  0E0B               	movlw	low STR_12
  1126  000120  0100               	movlb	0	; () banked
  1127  000122  6F9D               	movwf	printf@fmt& (0+255),b
  1128  000124  0EFF               	movlw	high STR_12
  1129  000126  6F9E               	movwf	(printf@fmt+1)& (0+255),b
  1130  000128  EC4B  F006         	call	_printf	;wreg free
  1131                           
  1132                           ;main.c: 87: 
  1133  00012C  0E6D               	movlw	low STR_5
  1134  00012E  0100               	movlb	0	; () banked
  1135  000130  6F9D               	movwf	printf@fmt& (0+255),b
  1136  000132  0EFE               	movlw	high STR_5
  1137  000134  6F9E               	movwf	(printf@fmt+1)& (0+255),b
  1138  000136  EC4B  F006         	call	_printf	;wreg free
  1139                           
  1140                           ;main.c: 88:             case 't':
  1141  00013A  EF4F  F000         	goto	l2333
  1142  00013E                     l2339:
  1143                           
  1144                           ; BSR set to: 0
  1145                           ;main.c: 94:                     motorsToggled = 1;
  1146  00013E  0EE6               	movlw	low STR_14
  1147  000140  6F9D               	movwf	printf@fmt& (0+255),b
  1148  000142  0EFF               	movlw	high STR_14
  1149  000144  6F9E               	movwf	(printf@fmt+1)& (0+255),b
  1150  000146  EC4B  F006         	call	_printf	;wreg free
  1151                           
  1152                           ;main.c: 95:                     do { LATBbits.LATB6 = 1; } while(0);
  1153  00014A  EF4F  F000         	goto	l2333
  1154  00014E                     l2341:
  1155                           
  1156                           ; BSR set to: 0
  1157                           ;main.c: 101:                     EPWM2_LoadDutyValue(128);
  1158  00014E  0E00               	movlw	0
  1159  000150  6FA9               	movwf	main@i& (0+255),b
  1160  000152                     l2347:
  1161                           
  1162                           ; BSR set to: 0
  1163  000152  0ED6               	movlw	low (STR_3+24)
  1164  000154  6F9D               	movwf	printf@fmt& (0+255),b
  1165  000156  0EFE               	movlw	high (STR_3+24)
  1166  000158  6F9E               	movwf	(printf@fmt+1)& (0+255),b
  1167  00015A  EC4B  F006         	call	_printf	;wreg free
  1168  00015E  0100               	movlb	0	; () banked
  1169  000160  2BA9               	incf	main@i& (0+255),f,b
  1170  000162                     
  1171                           ; BSR set to: 0
  1172  000162  0E27               	movlw	39
  1173  000164  65A9               	cpfsgt	main@i& (0+255),b
  1174  000166  EFB7  F000         	goto	u1061
  1175  00016A  EFB9  F000         	goto	u1060
  1176  00016E                     u1061:
  1177  00016E  EFA9  F000         	goto	l2347
  1178  000172                     u1060:
  1179  000172                     
  1180                           ; BSR set to: 0
  1181  000172  00FF               	reset		;# 
  1182                           
  1183                           ;main.c: 103:                 }
  1184  000174  EF4F  F000         	goto	l2333
  1185  000178                     l2353:
  1186                           
  1187                           ; BSR set to: 0
  1188                           ;main.c: 109:                 do { LATBbits.LATB2 = 1; } while(0);
  1189  000178  0E00               	movlw	0
  1190  00017A  6FA9               	movwf	main@i& (0+255),b
  1191  00017C                     l2359:
  1192                           
  1193                           ; BSR set to: 0
  1194  00017C  0ED6               	movlw	low (STR_3+24)
  1195  00017E  6F9D               	movwf	printf@fmt& (0+255),b
  1196  000180  0EFE               	movlw	high (STR_3+24)
  1197  000182  6F9E               	movwf	(printf@fmt+1)& (0+255),b
  1198  000184  EC4B  F006         	call	_printf	;wreg free
  1199  000188  0100               	movlb	0	; () banked
  1200  00018A  2BA9               	incf	main@i& (0+255),f,b
  1201  00018C                     
  1202                           ; BSR set to: 0
  1203  00018C  0E27               	movlw	39
  1204  00018E  65A9               	cpfsgt	main@i& (0+255),b
  1205  000190  EFCC  F000         	goto	u1071
  1206  000194  EFCE  F000         	goto	u1070
  1207  000198                     u1071:
  1208  000198  EFBE  F000         	goto	l2359
  1209  00019C                     u1070:
  1210  00019C  EF4F  F000         	goto	l2333
  1211  0001A0                     l2365:
  1212                           
  1213                           ; BSR set to: 0
  1214                           ;main.c: 113:                 do { LATBbits.LATB2 = 0; } while(0);
  1215  0001A0  51A7               	movf	main@motorsToggled& (0+255),w,b
  1216  0001A2  B4D8               	btfsc	status,2,c
  1217  0001A4  EFD6  F000         	goto	u1081
  1218  0001A8  EFD8  F000         	goto	u1080
  1219  0001AC                     u1081:
  1220  0001AC  EFE3  F000         	goto	l2373
  1221  0001B0                     u1080:
  1222  0001B0                     
  1223                           ; BSR set to: 0
  1224                           ;main.c: 114: 
  1225  0001B0  0E00               	movlw	0
  1226  0001B2  6FA7               	movwf	main@motorsToggled& (0+255),b
  1227  0001B4                     
  1228                           ; BSR set to: 0
  1229  0001B4  9089               	bcf	137,0,c	;volatile
  1230  0001B6                     
  1231                           ; BSR set to: 0
  1232                           ;main.c: 116: 
  1233  0001B6  0E3A               	movlw	low STR_17
  1234  0001B8  6F9D               	movwf	printf@fmt& (0+255),b
  1235  0001BA  0EFF               	movlw	high STR_17
  1236  0001BC  6F9E               	movwf	(printf@fmt+1)& (0+255),b
  1237  0001BE  EC4B  F006         	call	_printf	;wreg free
  1238                           
  1239                           ;main.c: 117:                 break;
  1240  0001C2  EF4F  F000         	goto	l2333
  1241  0001C6                     l2373:
  1242                           
  1243                           ; BSR set to: 0
  1244                           ;main.c: 118: 
  1245  0001C6  0E01               	movlw	1
  1246  0001C8  6FA7               	movwf	main@motorsToggled& (0+255),b
  1247  0001CA                     
  1248                           ; BSR set to: 0
  1249  0001CA  8C8A               	bsf	138,6,c	;volatile
  1250  0001CC                     
  1251                           ; BSR set to: 0
  1252  0001CC  9E8A               	bcf	138,7,c	;volatile
  1253  0001CE                     
  1254                           ; BSR set to: 0
  1255  0001CE  8A8A               	bsf	138,5,c	;volatile
  1256  0001D0                     
  1257                           ; BSR set to: 0
  1258  0001D0  9289               	bcf	137,1,c	;volatile
  1259  0001D2                     
  1260                           ; BSR set to: 0
  1261  0001D2  8089               	bsf	137,0,c	;volatile
  1262  0001D4                     
  1263                           ; BSR set to: 0
  1264                           ;main.c: 124:                         TMR0_WriteTimer(0x10000 - 10);
  1265  0001D4  0E00               	movlw	0
  1266  0001D6  6E04               	movwf	(EPWM1_LoadDutyValue@dutyValue+1)^0,c
  1267  0001D8  0E80               	movlw	128
  1268  0001DA  6E03               	movwf	EPWM1_LoadDutyValue@dutyValue^0,c
  1269  0001DC  EC07  F006         	call	_EPWM1_LoadDutyValue	;wreg free
  1270  0001E0                     
  1271                           ;main.c: 125:                         while(INTCONbits.TMR0IF == 0);
  1272  0001E0  0E00               	movlw	0
  1273  0001E2  6E04               	movwf	(EPWM2_LoadDutyValue@dutyValue+1)^0,c
  1274  0001E4  0E80               	movlw	128
  1275  0001E6  6E03               	movwf	EPWM2_LoadDutyValue@dutyValue^0,c
  1276  0001E8  ECEF  F005         	call	_EPWM2_LoadDutyValue	;wreg free
  1277  0001EC                     
  1278                           ;main.c: 126:                     }
  1279  0001EC  0E66               	movlw	low STR_18
  1280  0001EE  0100               	movlb	0	; () banked
  1281  0001F0  6F9D               	movwf	printf@fmt& (0+255),b
  1282  0001F2  0EFF               	movlw	high STR_18
  1283  0001F4  6F9E               	movwf	(printf@fmt+1)& (0+255),b
  1284  0001F6  EC4B  F006         	call	_printf	;wreg free
  1285  0001FA  EF4F  F000         	goto	l2333
  1286  0001FE                     l421:
  1287                           
  1288                           ; BSR set to: 0
  1289  0001FE  848A               	bsf	138,2,c	;volatile
  1290  000200                     
  1291                           ; BSR set to: 0
  1292                           ;main.c: 134:    default:
  1293  000200  94F2               	bcf	242,2,c	;volatile
  1294  000202                     
  1295                           ; BSR set to: 0
  1296                           ;main.c: 135:     printf("Unknown key %c\r\n",cmd);
  1297  000202  0EFF               	movlw	255
  1298  000204  6E04               	movwf	(TMR0_WriteTimer@timerVal+1)^0,c
  1299  000206  0EF6               	movlw	246
  1300  000208  6E03               	movwf	TMR0_WriteTimer@timerVal^0,c
  1301  00020A  ECFA  F006         	call	_TMR0_WriteTimer	;wreg free
  1302  00020E                     l423:
  1303  00020E  A4F2               	btfss	242,2,c	;volatile
  1304  000210  EF0C  F001         	goto	u1091
  1305  000214  EF0E  F001         	goto	u1090
  1306  000218                     u1091:
  1307  000218  EF07  F001         	goto	l423
  1308  00021C                     u1090:
  1309  00021C  948A               	bcf	138,2,c	;volatile
  1310  00021E                     
  1311                           ;main.c: 139:   }
  1312  00021E  0EC7               	movlw	low STR_19
  1313  000220  0100               	movlb	0	; () banked
  1314  000222  6F9D               	movwf	printf@fmt& (0+255),b
  1315  000224  0EFF               	movlw	high STR_19
  1316  000226  6F9E               	movwf	(printf@fmt+1)& (0+255),b
  1317  000228  C070  F09F         	movff	_distance,?_printf+2
  1318  00022C  C071  F0A0         	movff	_distance+1,?_printf+3
  1319  000230  EC4B  F006         	call	_printf	;wreg free
  1320                           
  1321                           ;main.c: 141: }
  1322  000234  EF4F  F000         	goto	l2333
  1323  000238                     l2395:
  1324                           
  1325                           ; BSR set to: 0
  1326  000238  0E23               	movlw	low STR_20
  1327  00023A  6F9D               	movwf	printf@fmt& (0+255),b
  1328  00023C  0EFF               	movlw	high STR_20
  1329  00023E  6F9E               	movwf	(printf@fmt+1)& (0+255),b
  1330  000240  EC4B  F006         	call	_printf	;wreg free
  1331  000244  0E00               	movlw	0
  1332  000246  0100               	movlb	0	; () banked
  1333  000248  6FA9               	movwf	main@i& (0+255),b
  1334  00024A                     l2401:
  1335                           
  1336                           ; BSR set to: 0
  1337  00024A  0E00               	movlw	0
  1338  00024C  6F69               	movwf	(_j+1)& (0+255),b
  1339  00024E  0E00               	movlw	0
  1340  000250  6F68               	movwf	_j& (0+255),b
  1341  000252                     l431:
  1342                           
  1343                           ; BSR set to: 0
  1344  000252  94F2               	bcf	242,2,c	;volatile
  1345  000254                     
  1346                           ; BSR set to: 0
  1347  000254  0EFF               	movlw	255
  1348  000256  6E04               	movwf	(TMR0_WriteTimer@timerVal+1)^0,c
  1349  000258  0EF6               	movlw	246
  1350  00025A  6E03               	movwf	TMR0_WriteTimer@timerVal^0,c
  1351  00025C  ECFA  F006         	call	_TMR0_WriteTimer	;wreg free
  1352  000260                     l433:
  1353  000260  A4F2               	btfss	242,2,c	;volatile
  1354  000262  EF35  F001         	goto	u1101
  1355  000266  EF37  F001         	goto	u1100
  1356  00026A                     u1101:
  1357  00026A  EF30  F001         	goto	l433
  1358  00026E                     u1100:
  1359  00026E  0100               	movlb	0	; () banked
  1360  000270  4B68               	infsnz	_j& (0+255),f,b
  1361  000272  2B69               	incf	(_j+1)& (0+255),f,b
  1362  000274                     
  1363                           ; BSR set to: 0
  1364  000274  0E3C               	movlw	60
  1365  000276  5D68               	subwf	_j& (0+255),w,b
  1366  000278  0E01               	movlw	1
  1367  00027A  5969               	subwfb	(_j+1)& (0+255),w,b
  1368  00027C  A0D8               	btfss	status,0,c
  1369  00027E  EF43  F001         	goto	u1111
  1370  000282  EF45  F001         	goto	u1110
  1371  000286                     u1111:
  1372  000286  EF29  F001         	goto	l431
  1373  00028A                     u1110:
  1374  00028A                     
  1375                           ; BSR set to: 0
  1376  00028A  2BA9               	incf	main@i& (0+255),f,b
  1377  00028C  EF25  F001         	goto	l2401
  1378  000290                     l2417:
  1379                           
  1380                           ; BSR set to: 0
  1381  000290  0EB6               	movlw	low STR_22
  1382  000292  6F9D               	movwf	printf@fmt& (0+255),b
  1383  000294  0EFF               	movlw	high STR_22
  1384  000296  6F9E               	movwf	(printf@fmt+1)& (0+255),b
  1385  000298  C0A8  F09F         	movff	main@cmd,?_printf+2
  1386  00029C  6BA0               	clrf	(?_printf+3)& (0+255),b
  1387  00029E  EC4B  F006         	call	_printf	;wreg free
  1388  0002A2  EF4F  F000         	goto	l2333
  1389  0002A6                     l2421:
  1390                           
  1391                           ; BSR set to: 0
  1392  0002A6  51A8               	movf	main@cmd& (0+255),w,b
  1393  0002A8  6FA5               	movwf	??_main& (0+255),b
  1394  0002AA  6BA6               	clrf	(??_main+1)& (0+255),b
  1395                           
  1396                           ; Switch on 2 bytes has been partitioned into a top level switch of size 1, and 1 sub-sw
      +                          itches
  1397                           ; Switch size 1, requested type "simple"
  1398                           ; Number of cases is 1, Range of values is 0 to 0
  1399                           ; switch strategies available:
  1400                           ; Name         Instructions Cycles
  1401                           ; simple_byte            4     3 (average)
  1402                           ;	Chosen strategy is simple_byte
  1403  0002AC  51A6               	movf	(??_main+1)& (0+255),w,b
  1404  0002AE  0A00               	xorlw	0	; case 0
  1405  0002B0  B4D8               	btfsc	status,2,c
  1406  0002B2  EF5D  F001         	goto	l2459
  1407  0002B6  EF48  F001         	goto	l2417
  1408  0002BA                     l2459:
  1409                           
  1410                           ; BSR set to: 0
  1411                           ; Switch size 1, requested type "simple"
  1412                           ; Number of cases is 7, Range of values is 63 to 122
  1413                           ; switch strategies available:
  1414                           ; Name         Instructions Cycles
  1415                           ; simple_byte           22    12 (average)
  1416                           ;	Chosen strategy is simple_byte
  1417  0002BA  51A5               	movf	??_main& (0+255),w,b
  1418  0002BC  0A3F               	xorlw	63	; case 63
  1419  0002BE  B4D8               	btfsc	status,2,c
  1420  0002C0  EF5F  F000         	goto	l2337
  1421  0002C4  0A65               	xorlw	101	; case 90
  1422  0002C6  B4D8               	btfsc	status,2,c
  1423  0002C8  EFA7  F000         	goto	l2341
  1424  0002CC  0A39               	xorlw	57	; case 99
  1425  0002CE  B4D8               	btfsc	status,2,c
  1426  0002D0  EF1C  F001         	goto	l2395
  1427  0002D4  0A0C               	xorlw	12	; case 111
  1428  0002D6  B4D8               	btfsc	status,2,c
  1429  0002D8  EF9F  F000         	goto	l2339
  1430  0002DC  0A1D               	xorlw	29	; case 114
  1431  0002DE  B4D8               	btfsc	status,2,c
  1432  0002E0  EFFF  F000         	goto	l421
  1433  0002E4  0A06               	xorlw	6	; case 116
  1434  0002E6  B4D8               	btfsc	status,2,c
  1435  0002E8  EFD0  F000         	goto	l2365
  1436  0002EC  0A0E               	xorlw	14	; case 122
  1437  0002EE  B4D8               	btfsc	status,2,c
  1438  0002F0  EFBC  F000         	goto	l2353
  1439  0002F4  EF48  F001         	goto	l2417
  1440  0002F8  EF1F  F000         	goto	start
  1441  0002FC                     __end_of_main:
  1442                           	opt callstack 0
  1443                           
  1444 ;; *************** function _printf *****************
  1445 ;; Defined at:
  1446 ;;		line 5 in file "C:\Program Files (x86)\Microchip\xc8\v2.10\pic\sources\c99\common\printf.c"
  1447 ;; Parameters:    Size  Location     Type
  1448 ;;  fmt             2    0[BANK0 ] PTR const unsigned char 
  1449 ;;		 -> STR_22(17), STR_21(19), STR_20(23), STR_19(16), 
  1450 ;;		 -> STR_18(21), STR_17(22), STR_16(2), STR_15(2), 
  1451 ;;		 -> STR_14(13), STR_13(52), STR_12(24), STR_11(29), 
  1452 ;;		 -> STR_10(20), STR_9(25), STR_8(22), STR_7(7), 
  1453 ;;		 -> STR_6(15), STR_5(52), STR_4(5), STR_3(26), 
  1454 ;;		 -> STR_2(26), STR_1(20), 
  1455 ;; Auto vars:     Size  Location     Type
  1456 ;;  ap              2    6[BANK0 ] PTR void [1]
  1457 ;;		 -> ?_printf(2), 
  1458 ;;  ret             2    0        int 
  1459 ;; Return value:  Size  Location     Type
  1460 ;;                  2    0[BANK0 ] int 
  1461 ;; Registers used:
  1462 ;;		wreg, fsr1l, fsr1h, fsr2l, fsr2h, status,2, status,0, tblptrl, tblptrh, tblptru, cstack
  1463 ;; Tracked objects:
  1464 ;;		On entry : 0/0
  1465 ;;		On exit  : 0/0
  1466 ;;		Unchanged: 0/0
  1467 ;; Data sizes:     COMRAM   BANK0   BANK1   BANK2   BANK3   BANK4   BANK5   BANK6   BANK7   BANK8   BANK9  BANK10  BANK1
      +1  BANK12  BANK13  BANK14  BANK15
  1468 ;;      Params:         0       4       0       0       0       0       0       0       0       0       0       0       
      +0       0       0       0       0
  1469 ;;      Locals:         0       4       0       0       0       0       0       0       0       0       0       0       
      +0       0       0       0       0
  1470 ;;      Temps:          0       0       0       0       0       0       0       0       0       0       0       0       
      +0       0       0       0       0
  1471 ;;      Totals:         0       8       0       0       0       0       0       0       0       0       0       0       
      +0       0       0       0       0
  1472 ;;Total ram usage:        8 bytes
  1473 ;; Hardware stack levels used:    1
  1474 ;; Hardware stack levels required when called:   12
  1475 ;; This function calls:
  1476 ;;		_vfprintf
  1477 ;; This function is called by:
  1478 ;;		_main
  1479 ;; This function uses a non-reentrant model
  1480 ;;
  1481                           
  1482                           	psect	text1
  1483  000C96                     __ptext1:
  1484                           	opt callstack 0
  1485  000C96                     _printf:
  1486                           	opt callstack 18
  1487  000C96  0E9F               	movlw	low (?_printf+2)
  1488  000C98  0100               	movlb	0	; () banked
  1489  000C9A  6FA3               	movwf	printf@ap& (0+255),b
  1490  000C9C  0E00               	movlw	high (?_printf+2)
  1491  000C9E  6FA4               	movwf	(printf@ap+1)& (0+255),b
  1492  000CA0                     
  1493                           ; BSR set to: 0
  1494  000CA0  0E00               	movlw	0
  1495  000CA2  6E53               	movwf	vfprintf@fp^0,c
  1496  000CA4  0E00               	movlw	0
  1497  000CA6  6E54               	movwf	(vfprintf@fp+1)^0,c
  1498  000CA8  C09D  F055         	movff	printf@fmt,vfprintf@fmt
  1499  000CAC  C09E  F056         	movff	printf@fmt+1,vfprintf@fmt+1
  1500  000CB0  0EA3               	movlw	low printf@ap
  1501  000CB2  6E57               	movwf	vfprintf@ap^0,c
  1502  000CB4  0E00               	movlw	high printf@ap
  1503  000CB6  6E58               	movwf	(vfprintf@ap+1)^0,c
  1504  000CB8  EC14  F005         	call	_vfprintf	;wreg free
  1505  000CBC  0012               	return		;funcret
  1506  000CBE                     __end_of_printf:
  1507                           	opt callstack 0
  1508                           
  1509 ;; *************** function _vfprintf *****************
  1510 ;; Defined at:
  1511 ;;		line 1368 in file "C:\Program Files (x86)\Microchip\xc8\v2.10\pic\sources\c99\common\doprnt.c"
  1512 ;; Parameters:    Size  Location     Type
  1513 ;;  fp              2   82[COMRAM] PTR struct _IO_FILE
  1514 ;;		 -> NULL(0), 
  1515 ;;  fmt             2   84[COMRAM] PTR const unsigned char 
  1516 ;;		 -> STR_22(17), STR_21(19), STR_20(23), STR_19(16), 
  1517 ;;		 -> STR_18(21), STR_17(22), STR_16(2), STR_15(2), 
  1518 ;;		 -> STR_14(13), STR_13(52), STR_12(24), STR_11(29), 
  1519 ;;		 -> STR_10(20), STR_9(25), STR_8(22), STR_7(7), 
  1520 ;;		 -> STR_6(15), STR_5(52), STR_4(5), STR_3(26), 
  1521 ;;		 -> STR_2(26), STR_1(20), 
  1522 ;;  ap              2   86[COMRAM] PTR PTR void 
  1523 ;;		 -> printf@ap(2), 
  1524 ;; Auto vars:     Size  Location     Type
  1525 ;;  cfmt            2   88[COMRAM] PTR unsigned char 
  1526 ;;		 -> STR_22(17), STR_21(19), STR_20(23), STR_19(16), 
  1527 ;;		 -> STR_18(21), STR_17(22), STR_16(2), STR_15(2), 
  1528 ;;		 -> STR_14(13), STR_13(52), STR_12(24), STR_11(29), 
  1529 ;;		 -> STR_10(20), STR_9(25), STR_8(22), STR_7(7), 
  1530 ;;		 -> STR_6(15), STR_5(52), STR_4(5), STR_3(26), 
  1531 ;;		 -> STR_2(26), STR_1(20), 
  1532 ;; Return value:  Size  Location     Type
  1533 ;;                  2   82[COMRAM] int 
  1534 ;; Registers used:
  1535 ;;		wreg, fsr1l, fsr1h, fsr2l, fsr2h, status,2, status,0, tblptrl, tblptrh, tblptru, cstack
  1536 ;; Tracked objects:
  1537 ;;		On entry : 0/0
  1538 ;;		On exit  : 0/0
  1539 ;;		Unchanged: 0/0
  1540 ;; Data sizes:     COMRAM   BANK0   BANK1   BANK2   BANK3   BANK4   BANK5   BANK6   BANK7   BANK8   BANK9  BANK10  BANK1
      +1  BANK12  BANK13  BANK14  BANK15
  1541 ;;      Params:         6       0       0       0       0       0       0       0       0       0       0       0       
      +0       0       0       0       0
  1542 ;;      Locals:         2       0       0       0       0       0       0       0       0       0       0       0       
      +0       0       0       0       0
  1543 ;;      Temps:          0       0       0       0       0       0       0       0       0       0       0       0       
      +0       0       0       0       0
  1544 ;;      Totals:         8       0       0       0       0       0       0       0       0       0       0       0       
      +0       0       0       0       0
  1545 ;;Total ram usage:        8 bytes
  1546 ;; Hardware stack levels used:    1
  1547 ;; Hardware stack levels required when called:   11
  1548 ;; This function calls:
  1549 ;;		_vfpfcnvrt
  1550 ;; This function is called by:
  1551 ;;		_printf
  1552 ;; This function uses a non-reentrant model
  1553 ;;
  1554                           
  1555                           	psect	text2
  1556  000A28                     __ptext2:
  1557                           	opt callstack 0
  1558  000A28                     _vfprintf:
  1559                           	opt callstack 18
  1560  000A28                     
  1561                           ;C:\Program Files (x86)\Microchip\xc8\v2.10\pic\sources\c99\common\doprnt.c: 1368: int v
      +                          fprintf(FILE *fp, const char *fmt, va_list ap);C:\Program Files (x86)\Microchip\xc8\v2.1
      +                          0\pic\sources\c99\common\doprnt.c: 1369: {;C:\Program Files (x86)\Microchip\xc8\v2.10\pi
      +                          c\sources\c99\common\doprnt.c: 1371:     char *cfmt;;C:\Program Files (x86)\Microchip\xc
      +                          8\v2.10\pic\sources\c99\common\doprnt.c: 1373:     cfmt = (char *)fmt;
  1562  000A28  C055  F059         	movff	vfprintf@fmt,vfprintf@cfmt
  1563  000A2C  C056  F05A         	movff	vfprintf@fmt+1,vfprintf@cfmt+1
  1564  000A30                     
  1565                           ;C:\Program Files (x86)\Microchip\xc8\v2.10\pic\sources\c99\common\doprnt.c: 1374:     n
      +                          out = 0;
  1566  000A30  0E00               	movlw	0
  1567  000A32  0100               	movlb	0	; () banked
  1568  000A34  6F61               	movwf	(_nout+1)& (0+255),b
  1569  000A36  0E00               	movlw	0
  1570  000A38  6F60               	movwf	_nout& (0+255),b
  1571                           
  1572                           ;C:\Program Files (x86)\Microchip\xc8\v2.10\pic\sources\c99\common\doprnt.c: 1375:     w
      +                          hile (*cfmt) {
  1573  000A3A  EF32  F005         	goto	l2065
  1574  000A3E                     l2063:
  1575                           
  1576                           ; BSR set to: 0
  1577                           ;C:\Program Files (x86)\Microchip\xc8\v2.10\pic\sources\c99\common\doprnt.c: 1376:      
      +                             nout += vfpfcnvrt(fp, &cfmt, ap);
  1578  000A3E  C053  F040         	movff	vfprintf@fp,vfpfcnvrt@fp
  1579  000A42  C054  F041         	movff	vfprintf@fp+1,vfpfcnvrt@fp+1
  1580  000A46  0E59               	movlw	low vfprintf@cfmt
  1581  000A48  6E42               	movwf	vfpfcnvrt@fmt^0,c
  1582  000A4A  0E00               	movlw	high vfprintf@cfmt
  1583  000A4C  6E43               	movwf	(vfpfcnvrt@fmt+1)^0,c
  1584  000A4E  C057  F044         	movff	vfprintf@ap,vfpfcnvrt@ap
  1585  000A52  C058  F045         	movff	vfprintf@ap+1,vfpfcnvrt@ap+1
  1586  000A56  EC7E  F001         	call	_vfpfcnvrt	;wreg free
  1587  000A5A  5040               	movf	?_vfpfcnvrt^0,w,c
  1588  000A5C  0100               	movlb	0	; () banked
  1589  000A5E  2760               	addwf	_nout& (0+255),f,b
  1590  000A60  5041               	movf	(?_vfpfcnvrt+1)^0,w,c
  1591  000A62  2361               	addwfc	(_nout+1)& (0+255),f,b
  1592  000A64                     l2065:
  1593                           
  1594                           ; BSR set to: 0
  1595                           ;C:\Program Files (x86)\Microchip\xc8\v2.10\pic\sources\c99\common\doprnt.c: 1375:     w
      +                          hile (*cfmt) {
  1596  000A64  C059  FFF6         	movff	vfprintf@cfmt,tblptrl
  1597  000A68  C05A  FFF7         	movff	vfprintf@cfmt+1,tblptrh
  1598  000A6C                     	if	1	;Program memory is < 0x10000, tblptru is always zero
  1599  000A6C  6AF8               	clrf	tblptru,c
  1600  000A6E                     	endif
  1601  000A6E                     	if	0	;tblptru may be non-zero
  1602  000A6E                     	endif
  1603  000A6E  0008               	tblrd		*
  1604  000A70  50F5               	movf	tablat,w,c
  1605  000A72  0900               	iorlw	0
  1606  000A74  A4D8               	btfss	status,2,c
  1607  000A76  EF3F  F005         	goto	u891
  1608  000A7A  EF41  F005         	goto	u890
  1609  000A7E                     u891:
  1610  000A7E  EF1F  F005         	goto	l2063
  1611  000A82                     u890:
  1612  000A82                     
  1613                           ; BSR set to: 0
  1614                           ;C:\Program Files (x86)\Microchip\xc8\v2.10\pic\sources\c99\common\doprnt.c: 1378:     r
      +                          eturn nout;
  1615  000A82  C060  F053         	movff	_nout,?_vfprintf
  1616  000A86  C061  F054         	movff	_nout+1,?_vfprintf+1
  1617  000A8A                     
  1618                           ; BSR set to: 0
  1619  000A8A  0012               	return		;funcret
  1620  000A8C                     __end_of_vfprintf:
  1621                           	opt callstack 0
  1622                           
  1623 ;; *************** function _vfpfcnvrt *****************
  1624 ;; Defined at:
  1625 ;;		line 670 in file "C:\Program Files (x86)\Microchip\xc8\v2.10\pic\sources\c99\common\doprnt.c"
  1626 ;; Parameters:    Size  Location     Type
  1627 ;;  fp              2   63[COMRAM] PTR struct _IO_FILE
  1628 ;;		 -> NULL(0), 
  1629 ;;  fmt             2   65[COMRAM] PTR PTR unsigned char 
  1630 ;;		 -> vfprintf@cfmt(2), 
  1631 ;;  ap              2   67[COMRAM] PTR PTR void 
  1632 ;;		 -> printf@ap(2), 
  1633 ;; Auto vars:     Size  Location     Type
  1634 ;;  llu             8   73[COMRAM] unsigned long long 
  1635 ;;  ll              8    0        long long 
  1636 ;;  f               4    0        long long 
  1637 ;;  vp              3    0        PTR void 
  1638 ;;  ct              3    0        unsigned char [3]
  1639 ;;  cp              3    0        PTR unsigned char 
  1640 ;;  i               2    0        int 
  1641 ;;  done            2    0        int 
  1642 ;;  c               1   81[COMRAM] unsigned char 
  1643 ;; Return value:  Size  Location     Type
  1644 ;;                  2   63[COMRAM] int 
  1645 ;; Registers used:
  1646 ;;		wreg, fsr1l, fsr1h, fsr2l, fsr2h, status,2, status,0, tblptrl, tblptrh, tblptru, cstack
  1647 ;; Tracked objects:
  1648 ;;		On entry : 0/0
  1649 ;;		On exit  : 0/0
  1650 ;;		Unchanged: 0/0
  1651 ;; Data sizes:     COMRAM   BANK0   BANK1   BANK2   BANK3   BANK4   BANK5   BANK6   BANK7   BANK8   BANK9  BANK10  BANK1
      +1  BANK12  BANK13  BANK14  BANK15
  1652 ;;      Params:         6       0       0       0       0       0       0       0       0       0       0       0       
      +0       0       0       0       0
  1653 ;;      Locals:         9       0       0       0       0       0       0       0       0       0       0       0       
      +0       0       0       0       0
  1654 ;;      Temps:          4       0       0       0       0       0       0       0       0       0       0       0       
      +0       0       0       0       0
  1655 ;;      Totals:        19       0       0       0       0       0       0       0       0       0       0       0       
      +0       0       0       0       0
  1656 ;;Total ram usage:       19 bytes
  1657 ;; Hardware stack levels used:    1
  1658 ;; Hardware stack levels required when called:   10
  1659 ;; This function calls:
  1660 ;;		_ctoa
  1661 ;;		_fputc
  1662 ;;		_utoa
  1663 ;; This function is called by:
  1664 ;;		_vfprintf
  1665 ;; This function uses a non-reentrant model
  1666 ;;
  1667                           
  1668                           	psect	text3
  1669  0002FC                     __ptext3:
  1670                           	opt callstack 0
  1671  0002FC                     _vfpfcnvrt:
  1672                           	opt callstack 18
  1673  0002FC                     
  1674                           ;C:\Program Files (x86)\Microchip\xc8\v2.10\pic\sources\c99\common\doprnt.c: 670: static
      +                           int vfpfcnvrt(FILE *fp, char *fmt[], va_list ap);C:\Program Files (x86)\Microchip\xc8\v
      +                          2.10\pic\sources\c99\common\doprnt.c: 671: {;C:\Program Files (x86)\Microchip\xc8\v2.10\
      +                          pic\sources\c99\common\doprnt.c: 672:     char c, *cp, ct[3];;C:\Program Files (x86)\Mic
      +                          rochip\xc8\v2.10\pic\sources\c99\common\doprnt.c: 673:     int done, i;;C:\Program Files
      +                           (x86)\Microchip\xc8\v2.10\pic\sources\c99\common\doprnt.c: 674:     long long ll;
  1675  0002FC  C042  FFD9         	movff	vfpfcnvrt@fmt,fsr2l
  1676  000300  C043  FFDA         	movff	vfpfcnvrt@fmt+1,fsr2h
  1677  000304  CFDE FFF6          	movff	postinc2,tblptrl
  1678  000308  CFDD FFF7          	movff	postdec2,tblptrh
  1679  00030C                     	if	1	;Program memory is < 0x10000, tblptru is always zero
  1680  00030C  6AF8               	clrf	tblptru,c
  1681  00030E                     	endif
  1682  00030E                     	if	0	;tblptru may be non-zero
  1683  00030E                     	endif
  1684  00030E  0008               	tblrd		*
  1685  000310  50F5               	movf	tablat,w,c
  1686  000312  0A25               	xorlw	37
  1687  000314  A4D8               	btfss	status,2,c
  1688  000316  EF8F  F001         	goto	u821
  1689  00031A  EF91  F001         	goto	u820
  1690  00031E                     u821:
  1691  00031E  EF68  F002         	goto	l1997
  1692  000322                     u820:
  1693  000322                     
  1694                           ;C:\Program Files (x86)\Microchip\xc8\v2.10\pic\sources\c99\common\doprnt.c: 681:       
      +                            ++*fmt;
  1695  000322  C042  FFD9         	movff	vfpfcnvrt@fmt,fsr2l
  1696  000326  C043  FFDA         	movff	vfpfcnvrt@fmt+1,fsr2h
  1697  00032A  2ADE               	incf	postinc2,f,c
  1698  00032C  0E00               	movlw	0
  1699  00032E  22DD               	addwfc	postdec2,f,c
  1700  000330                     
  1701                           ;C:\Program Files (x86)\Microchip\xc8\v2.10\pic\sources\c99\common\doprnt.c: 683:       
      +                            flags = width = 0;
  1702  000330  0E00               	movlw	0
  1703  000332  0100               	movlb	0	; () banked
  1704  000334  6F63               	movwf	(_width+1)& (0+255),b
  1705  000336  0E00               	movlw	0
  1706  000338  6F62               	movwf	_width& (0+255),b
  1707  00033A  C062  F066         	movff	_width,_flags
  1708  00033E  C063  F067         	movff	_width+1,_flags+1
  1709  000342                     
  1710                           ; BSR set to: 0
  1711                           ;C:\Program Files (x86)\Microchip\xc8\v2.10\pic\sources\c99\common\doprnt.c: 684:       
      +                            prec = -1;
  1712  000342  6964               	setf	_prec& (0+255),b
  1713  000344  6965               	setf	(_prec+1)& (0+255),b
  1714  000346                     
  1715                           ; BSR set to: 0
  1716                           ;C:\Program Files (x86)\Microchip\xc8\v2.10\pic\sources\c99\common\doprnt.c: 792:       
      +                            if (*fmt[0] == 'c') {
  1717  000346  C042  FFD9         	movff	vfpfcnvrt@fmt,fsr2l
  1718  00034A  C043  FFDA         	movff	vfpfcnvrt@fmt+1,fsr2h
  1719  00034E  CFDE FFF6          	movff	postinc2,tblptrl
  1720  000352  CFDD FFF7          	movff	postdec2,tblptrh
  1721  000356                     	if	1	;Program memory is < 0x10000, tblptru is always zero
  1722  000356  6AF8               	clrf	tblptru,c
  1723  000358                     	endif
  1724  000358                     	if	0	;tblptru may be non-zero
  1725  000358                     	endif
  1726  000358  0008               	tblrd		*
  1727  00035A  50F5               	movf	tablat,w,c
  1728  00035C  0A63               	xorlw	99
  1729  00035E  A4D8               	btfss	status,2,c
  1730  000360  EFB4  F001         	goto	u831
  1731  000364  EFB6  F001         	goto	u830
  1732  000368                     u831:
  1733  000368  EFDD  F001         	goto	l1973
  1734  00036C                     u830:
  1735  00036C                     
  1736                           ; BSR set to: 0
  1737                           ;C:\Program Files (x86)\Microchip\xc8\v2.10\pic\sources\c99\common\doprnt.c: 793:       
      +                                ++*fmt;
  1738  00036C  C042  FFD9         	movff	vfpfcnvrt@fmt,fsr2l
  1739  000370  C043  FFDA         	movff	vfpfcnvrt@fmt+1,fsr2h
  1740  000374  2ADE               	incf	postinc2,f,c
  1741  000376  0E00               	movlw	0
  1742  000378  22DD               	addwfc	postdec2,f,c
  1743                           
  1744                           ;C:\Program Files (x86)\Microchip\xc8\v2.10\pic\sources\c99\common\doprnt.c: 794:       
      +                                c = (unsigned char)(*(int *)__va_arg(*(int **)ap, (int)0));
  1745  00037A  C044  FFD9         	movff	vfpfcnvrt@ap,fsr2l
  1746  00037E  C045  FFDA         	movff	vfpfcnvrt@ap+1,fsr2h
  1747  000382  CFDF F046          	movff	indf2,??_vfpfcnvrt
  1748  000386  0E02               	movlw	2
  1749  000388  26DE               	addwf	postinc2,f,c
  1750  00038A  CFDF F047          	movff	indf2,??_vfpfcnvrt+1
  1751  00038E  0E00               	movlw	0
  1752  000390  22DD               	addwfc	postdec2,f,c
  1753  000392  C046  FFD9         	movff	??_vfpfcnvrt,fsr2l
  1754  000396  C047  FFDA         	movff	??_vfpfcnvrt+1,fsr2h
  1755  00039A  50DF               	movf	indf2,w,c
  1756  00039C  6E52               	movwf	vfpfcnvrt@c^0,c
  1757  00039E                     
  1758                           ; BSR set to: 0
  1759                           ;C:\Program Files (x86)\Microchip\xc8\v2.10\pic\sources\c99\common\doprnt.c: 795:       
      +                                return ctoa(fp, c);
  1760  00039E  C040  F020         	movff	vfpfcnvrt@fp,ctoa@fp
  1761  0003A2  C041  F021         	movff	vfpfcnvrt@fp+1,ctoa@fp+1
  1762  0003A6  C052  F022         	movff	vfpfcnvrt@c,ctoa@c
  1763  0003AA  EC46  F005         	call	_ctoa	;wreg free
  1764  0003AE  C020  F040         	movff	?_ctoa,?_vfpfcnvrt
  1765  0003B2  C021  F041         	movff	?_ctoa+1,?_vfpfcnvrt+1
  1766  0003B6  EF84  F002         	goto	l512
  1767  0003BA                     l1973:
  1768                           
  1769                           ; BSR set to: 0
  1770                           ;C:\Program Files (x86)\Microchip\xc8\v2.10\pic\sources\c99\common\doprnt.c: 1182:      
      +                             if (*fmt[0] == 'u') {
  1771  0003BA  C042  FFD9         	movff	vfpfcnvrt@fmt,fsr2l
  1772  0003BE  C043  FFDA         	movff	vfpfcnvrt@fmt+1,fsr2h
  1773  0003C2  CFDE FFF6          	movff	postinc2,tblptrl
  1774  0003C6  CFDD FFF7          	movff	postdec2,tblptrh
  1775  0003CA                     	if	1	;Program memory is < 0x10000, tblptru is always zero
  1776  0003CA  6AF8               	clrf	tblptru,c
  1777  0003CC                     	endif
  1778  0003CC                     	if	0	;tblptru may be non-zero
  1779  0003CC                     	endif
  1780  0003CC  0008               	tblrd		*
  1781  0003CE  50F5               	movf	tablat,w,c
  1782  0003D0  0A75               	xorlw	117
  1783  0003D2  A4D8               	btfss	status,2,c
  1784  0003D4  EFEE  F001         	goto	u841
  1785  0003D8  EFF0  F001         	goto	u840
  1786  0003DC                     u841:
  1787  0003DC  EF31  F002         	goto	l1981
  1788  0003E0                     u840:
  1789  0003E0                     
  1790                           ; BSR set to: 0
  1791                           ;C:\Program Files (x86)\Microchip\xc8\v2.10\pic\sources\c99\common\doprnt.c: 1184:      
      +                                 ++*fmt;
  1792  0003E0  C042  FFD9         	movff	vfpfcnvrt@fmt,fsr2l
  1793  0003E4  C043  FFDA         	movff	vfpfcnvrt@fmt+1,fsr2h
  1794  0003E8  2ADE               	incf	postinc2,f,c
  1795  0003EA  0E00               	movlw	0
  1796  0003EC  22DD               	addwfc	postdec2,f,c
  1797                           
  1798                           ;C:\Program Files (x86)\Microchip\xc8\v2.10\pic\sources\c99\common\doprnt.c: 1185:      
      +                                 llu = (unsigned long long)(*(unsigned int *)__va_arg(*(unsigned int **)ap, (unsig
      +                          ned int)0));
  1799  0003EE  C044  FFD9         	movff	vfpfcnvrt@ap,fsr2l
  1800  0003F2  C045  FFDA         	movff	vfpfcnvrt@ap+1,fsr2h
  1801  0003F6  CFDF F046          	movff	indf2,??_vfpfcnvrt
  1802  0003FA  0E02               	movlw	2
  1803  0003FC  26DE               	addwf	postinc2,f,c
  1804  0003FE  CFDF F047          	movff	indf2,??_vfpfcnvrt+1
  1805  000402  0E00               	movlw	0
  1806  000404  22DD               	addwfc	postdec2,f,c
  1807  000406  C046  FFD9         	movff	??_vfpfcnvrt,fsr2l
  1808  00040A  C047  FFDA         	movff	??_vfpfcnvrt+1,fsr2h
  1809  00040E  CFDE F048          	movff	postinc2,??_vfpfcnvrt+2
  1810  000412  CFDD F049          	movff	postdec2,??_vfpfcnvrt+3
  1811  000416  C048  F04A         	movff	??_vfpfcnvrt+2,vfpfcnvrt@llu
  1812  00041A  C049  F04B         	movff	??_vfpfcnvrt+3,vfpfcnvrt@llu+1
  1813  00041E  6A4C               	clrf	(vfpfcnvrt@llu+2)^0,c
  1814  000420  6A4D               	clrf	(vfpfcnvrt@llu+3)^0,c
  1815  000422  6A4E               	clrf	(vfpfcnvrt@llu+4)^0,c
  1816  000424  6A4F               	clrf	(vfpfcnvrt@llu+5)^0,c
  1817  000426  6A50               	clrf	(vfpfcnvrt@llu+6)^0,c
  1818  000428  6A51               	clrf	(vfpfcnvrt@llu+7)^0,c
  1819  00042A                     
  1820                           ; BSR set to: 0
  1821                           ;C:\Program Files (x86)\Microchip\xc8\v2.10\pic\sources\c99\common\doprnt.c: 1187:      
      +                                 return utoa(fp, llu);
  1822  00042A  C040  F020         	movff	vfpfcnvrt@fp,utoa@fp
  1823  00042E  C041  F021         	movff	vfpfcnvrt@fp+1,utoa@fp+1
  1824  000432  C04A  F022         	movff	vfpfcnvrt@llu,utoa@d
  1825  000436  C04B  F023         	movff	vfpfcnvrt@llu+1,utoa@d+1
  1826  00043A  C04C  F024         	movff	vfpfcnvrt@llu+2,utoa@d+2
  1827  00043E  C04D  F025         	movff	vfpfcnvrt@llu+3,utoa@d+3
  1828  000442  C04E  F026         	movff	vfpfcnvrt@llu+4,utoa@d+4
  1829  000446  C04F  F027         	movff	vfpfcnvrt@llu+5,utoa@d+5
  1830  00044A  C050  F028         	movff	vfpfcnvrt@llu+6,utoa@d+6
  1831  00044E  C051  F029         	movff	vfpfcnvrt@llu+7,utoa@d+7
  1832  000452  EC85  F002         	call	_utoa	;wreg free
  1833  000456  C020  F040         	movff	?_utoa,?_vfpfcnvrt
  1834  00045A  C021  F041         	movff	?_utoa+1,?_vfpfcnvrt+1
  1835  00045E  EF84  F002         	goto	l512
  1836  000462                     l1981:
  1837                           
  1838                           ; BSR set to: 0
  1839                           ;C:\Program Files (x86)\Microchip\xc8\v2.10\pic\sources\c99\common\doprnt.c: 1350:      
      +                             if ((*fmt)[0] == '%') {
  1840  000462  C042  FFD9         	movff	vfpfcnvrt@fmt,fsr2l
  1841  000466  C043  FFDA         	movff	vfpfcnvrt@fmt+1,fsr2h
  1842  00046A  CFDE FFF6          	movff	postinc2,tblptrl
  1843  00046E  CFDD FFF7          	movff	postdec2,tblptrh
  1844  000472                     	if	1	;Program memory is < 0x10000, tblptru is always zero
  1845  000472  6AF8               	clrf	tblptru,c
  1846  000474                     	endif
  1847  000474                     	if	0	;tblptru may be non-zero
  1848  000474                     	endif
  1849  000474  0008               	tblrd		*
  1850  000476  50F5               	movf	tablat,w,c
  1851  000478  0A25               	xorlw	37
  1852  00047A  A4D8               	btfss	status,2,c
  1853  00047C  EF42  F002         	goto	u851
  1854  000480  EF44  F002         	goto	u850
  1855  000484                     u851:
  1856  000484  EF5B  F002         	goto	l1991
  1857  000488                     u850:
  1858  000488                     
  1859                           ; BSR set to: 0
  1860                           ;C:\Program Files (x86)\Microchip\xc8\v2.10\pic\sources\c99\common\doprnt.c: 1351:      
      +                                 ++*fmt;
  1861  000488  C042  FFD9         	movff	vfpfcnvrt@fmt,fsr2l
  1862  00048C  C043  FFDA         	movff	vfpfcnvrt@fmt+1,fsr2h
  1863  000490  2ADE               	incf	postinc2,f,c
  1864  000492  0E00               	movlw	0
  1865  000494  22DD               	addwfc	postdec2,f,c
  1866  000496                     
  1867                           ; BSR set to: 0
  1868                           ;C:\Program Files (x86)\Microchip\xc8\v2.10\pic\sources\c99\common\doprnt.c: 1352:      
      +                                 fputc((int)'%', fp);
  1869  000496  0E00               	movlw	0
  1870  000498  6E06               	movwf	(fputc@c+1)^0,c
  1871  00049A  0E25               	movlw	37
  1872  00049C  6E05               	movwf	fputc@c^0,c
  1873  00049E  C040  F007         	movff	vfpfcnvrt@fp,fputc@fp
  1874  0004A2  C041  F008         	movff	vfpfcnvrt@fp+1,fputc@fp+1
  1875  0004A6  ECC9  F004         	call	_fputc	;wreg free
  1876  0004AA                     l1987:
  1877                           
  1878                           ;C:\Program Files (x86)\Microchip\xc8\v2.10\pic\sources\c99\common\doprnt.c: 1353:      
      +                                 return 1;
  1879  0004AA  0E00               	movlw	0
  1880  0004AC  6E41               	movwf	(?_vfpfcnvrt+1)^0,c
  1881  0004AE  0E01               	movlw	1
  1882  0004B0  6E40               	movwf	?_vfpfcnvrt^0,c
  1883  0004B2  EF84  F002         	goto	l512
  1884  0004B6                     l1991:
  1885                           
  1886                           ; BSR set to: 0
  1887                           ;C:\Program Files (x86)\Microchip\xc8\v2.10\pic\sources\c99\common\doprnt.c: 1357:      
      +                             ++*fmt;
  1888  0004B6  C042  FFD9         	movff	vfpfcnvrt@fmt,fsr2l
  1889  0004BA  C043  FFDA         	movff	vfpfcnvrt@fmt+1,fsr2h
  1890  0004BE  2ADE               	incf	postinc2,f,c
  1891  0004C0  0E00               	movlw	0
  1892  0004C2  22DD               	addwfc	postdec2,f,c
  1893  0004C4                     
  1894                           ; BSR set to: 0
  1895                           ;C:\Program Files (x86)\Microchip\xc8\v2.10\pic\sources\c99\common\doprnt.c: 1358:      
      +                             return 0;
  1896  0004C4  0E00               	movlw	0
  1897  0004C6  6E41               	movwf	(?_vfpfcnvrt+1)^0,c
  1898  0004C8  0E00               	movlw	0
  1899  0004CA  6E40               	movwf	?_vfpfcnvrt^0,c
  1900  0004CC  EF84  F002         	goto	l512
  1901  0004D0                     l1997:
  1902                           
  1903                           ;C:\Program Files (x86)\Microchip\xc8\v2.10\pic\sources\c99\common\doprnt.c: 1362:     f
      +                          putc((int)(*fmt)[0], fp);
  1904  0004D0  C042  FFD9         	movff	vfpfcnvrt@fmt,fsr2l
  1905  0004D4  C043  FFDA         	movff	vfpfcnvrt@fmt+1,fsr2h
  1906  0004D8  CFDE FFF6          	movff	postinc2,tblptrl
  1907  0004DC  CFDD FFF7          	movff	postdec2,tblptrh
  1908  0004E0                     	if	1	;Program memory is < 0x10000, tblptru is always zero
  1909  0004E0  6AF8               	clrf	tblptru,c
  1910  0004E2                     	endif
  1911  0004E2                     	if	0	;tblptru may be non-zero
  1912  0004E2                     	endif
  1913  0004E2  0008               	tblrd		*
  1914  0004E4  50F5               	movf	tablat,w,c
  1915  0004E6  6E05               	movwf	fputc@c^0,c
  1916  0004E8  6A06               	clrf	(fputc@c+1)^0,c
  1917  0004EA  C040  F007         	movff	vfpfcnvrt@fp,fputc@fp
  1918  0004EE  C041  F008         	movff	vfpfcnvrt@fp+1,fputc@fp+1
  1919  0004F2  ECC9  F004         	call	_fputc	;wreg free
  1920  0004F6                     
  1921                           ;C:\Program Files (x86)\Microchip\xc8\v2.10\pic\sources\c99\common\doprnt.c: 1363:     +
      +                          +*fmt;
  1922  0004F6  C042  FFD9         	movff	vfpfcnvrt@fmt,fsr2l
  1923  0004FA  C043  FFDA         	movff	vfpfcnvrt@fmt+1,fsr2h
  1924  0004FE  2ADE               	incf	postinc2,f,c
  1925  000500  0E00               	movlw	0
  1926  000502  22DD               	addwfc	postdec2,f,c
  1927  000504  EF55  F002         	goto	l1987
  1928  000508                     l512:
  1929  000508  0012               	return		;funcret
  1930  00050A                     __end_of_vfpfcnvrt:
  1931                           	opt callstack 0
  1932                           
  1933 ;; *************** function _utoa *****************
  1934 ;; Defined at:
  1935 ;;		line 593 in file "C:\Program Files (x86)\Microchip\xc8\v2.10\pic\sources\c99\common\doprnt.c"
  1936 ;; Parameters:    Size  Location     Type
  1937 ;;  fp              2   31[COMRAM] PTR struct _IO_FILE
  1938 ;;		 -> NULL(0), 
  1939 ;;  d               8   33[COMRAM] unsigned long long 
  1940 ;; Auto vars:     Size  Location     Type
  1941 ;;  n               8   53[COMRAM] unsigned long long 
  1942 ;;  i               2   61[COMRAM] int 
  1943 ;;  w               2   51[COMRAM] int 
  1944 ;;  p               2   49[COMRAM] int 
  1945 ;; Return value:  Size  Location     Type
  1946 ;;                  2   31[COMRAM] int 
  1947 ;; Registers used:
  1948 ;;		wreg, fsr1l, fsr1h, fsr2l, fsr2h, status,2, status,0, cstack
  1949 ;; Tracked objects:
  1950 ;;		On entry : 0/0
  1951 ;;		On exit  : 0/0
  1952 ;;		Unchanged: 0/0
  1953 ;; Data sizes:     COMRAM   BANK0   BANK1   BANK2   BANK3   BANK4   BANK5   BANK6   BANK7   BANK8   BANK9  BANK10  BANK1
      +1  BANK12  BANK13  BANK14  BANK15
  1954 ;;      Params:        10       0       0       0       0       0       0       0       0       0       0       0       
      +0       0       0       0       0
  1955 ;;      Locals:        14       0       0       0       0       0       0       0       0       0       0       0       
      +0       0       0       0       0
  1956 ;;      Temps:          8       0       0       0       0       0       0       0       0       0       0       0       
      +0       0       0       0       0
  1957 ;;      Totals:        32       0       0       0       0       0       0       0       0       0       0       0       
      +0       0       0       0       0
  1958 ;;Total ram usage:       32 bytes
  1959 ;; Hardware stack levels used:    1
  1960 ;; Hardware stack levels required when called:    9
  1961 ;; This function calls:
  1962 ;;		___lodiv
  1963 ;;		___lomod
  1964 ;;		_pad
  1965 ;; This function is called by:
  1966 ;;		_vfpfcnvrt
  1967 ;; This function uses a non-reentrant model
  1968 ;;
  1969                           
  1970                           	psect	text4
  1971  00050A                     __ptext4:
  1972                           	opt callstack 0
  1973  00050A                     _utoa:
  1974                           	opt callstack 18
  1975  00050A                     
  1976                           ;C:\Program Files (x86)\Microchip\xc8\v2.10\pic\sources\c99\common\doprnt.c: 593: static
      +                           int utoa(FILE *fp, unsigned long long d);C:\Program Files (x86)\Microchip\xc8\v2.10\pic
      +                          \sources\c99\common\doprnt.c: 594: {;C:\Program Files (x86)\Microchip\xc8\v2.10\pic\sour
      +                          ces\c99\common\doprnt.c: 595:     int i, p, w;;C:\Program Files (x86)\Microchip\xc8\v2.1
      +                          0\pic\sources\c99\common\doprnt.c: 596:     unsigned long long n;;C:\Program Files (x86)
      +                          \Microchip\xc8\v2.10\pic\sources\c99\common\doprnt.c: 599:     if (!(prec < 0)) {
  1977  00050A  0100               	movlb	0	; () banked
  1978  00050C  BF65               	btfsc	(_prec+1)& (0+255),7,b
  1979  00050E  EF8B  F002         	goto	u751
  1980  000512  EF8D  F002         	goto	u750
  1981  000516                     u751:
  1982  000516  EF8E  F002         	goto	l1917
  1983  00051A                     u750:
  1984  00051A                     
  1985                           ; BSR set to: 0
  1986                           ;C:\Program Files (x86)\Microchip\xc8\v2.10\pic\sources\c99\common\doprnt.c: 600:       
      +                            flags &= ~(1 << 1);
  1987  00051A  9366               	bcf	_flags& (0+255),1,b
  1988  00051C                     l1917:
  1989                           
  1990                           ; BSR set to: 0
  1991                           ;C:\Program Files (x86)\Microchip\xc8\v2.10\pic\sources\c99\common\doprnt.c: 602:     p 
      +                          = (0 < prec) ? prec : 1;
  1992  00051C  BF65               	btfsc	(_prec+1)& (0+255),7,b
  1993  00051E  EF9B  F002         	goto	u760
  1994  000522  5165               	movf	(_prec+1)& (0+255),w,b
  1995  000524  E106               	bnz	u761
  1996  000526  0564               	decf	_prec& (0+255),w,b
  1997  000528  B0D8               	btfsc	status,0,c
  1998  00052A  EF99  F002         	goto	u761
  1999  00052E  EF9B  F002         	goto	u760
  2000  000532                     u761:
  2001  000532  EFA1  F002         	goto	l497
  2002  000536                     u760:
  2003  000536                     
  2004                           ; BSR set to: 0
  2005  000536  0E00               	movlw	0
  2006  000538  6E33               	movwf	(utoa@p+1)^0,c
  2007  00053A  0E01               	movlw	1
  2008  00053C  6E32               	movwf	utoa@p^0,c
  2009  00053E  EFA5  F002         	goto	l499
  2010  000542                     l497:
  2011                           
  2012                           ; BSR set to: 0
  2013  000542  C064  F032         	movff	_prec,utoa@p
  2014  000546  C065  F033         	movff	_prec+1,utoa@p+1
  2015  00054A                     l499:
  2016                           
  2017                           ; BSR set to: 0
  2018                           ;C:\Program Files (x86)\Microchip\xc8\v2.10\pic\sources\c99\common\doprnt.c: 603:     w 
      +                          = width;
  2019  00054A  C062  F034         	movff	_width,utoa@w
  2020  00054E  C063  F035         	movff	_width+1,utoa@w+1
  2021                           
  2022                           ;C:\Program Files (x86)\Microchip\xc8\v2.10\pic\sources\c99\common\doprnt.c: 606:     n 
      +                          = d;
  2023  000552  C022  F036         	movff	utoa@d,utoa@n
  2024  000556  C023  F037         	movff	utoa@d+1,utoa@n+1
  2025  00055A  C024  F038         	movff	utoa@d+2,utoa@n+2
  2026  00055E  C025  F039         	movff	utoa@d+3,utoa@n+3
  2027  000562  C026  F03A         	movff	utoa@d+4,utoa@n+4
  2028  000566  C027  F03B         	movff	utoa@d+5,utoa@n+5
  2029  00056A  C028  F03C         	movff	utoa@d+6,utoa@n+6
  2030  00056E  C029  F03D         	movff	utoa@d+7,utoa@n+7
  2031  000572                     
  2032                           ; BSR set to: 0
  2033                           ;C:\Program Files (x86)\Microchip\xc8\v2.10\pic\sources\c99\common\doprnt.c: 607:     i 
      +                          = sizeof(dbuf) - 1;
  2034  000572  0E00               	movlw	0
  2035  000574  6E3F               	movwf	(utoa@i+1)^0,c
  2036  000576  0E1F               	movlw	31
  2037  000578  6E3E               	movwf	utoa@i^0,c
  2038  00057A                     
  2039                           ; BSR set to: 0
  2040                           ;C:\Program Files (x86)\Microchip\xc8\v2.10\pic\sources\c99\common\doprnt.c: 608:     db
      +                          uf[i] = '\0';
  2041  00057A  0E00               	movlw	0
  2042  00057C  6F9C               	movwf	(_dbuf+31)& (0+255),b
  2043                           
  2044                           ;C:\Program Files (x86)\Microchip\xc8\v2.10\pic\sources\c99\common\doprnt.c: 609:     wh
      +                          ile (i && (n || (0 < p) || ((0 < w) && (flags & (1 << 1))))) {
  2045  00057E  EF37  F003         	goto	l1935
  2046  000582                     l1925:
  2047                           
  2048                           ;C:\Program Files (x86)\Microchip\xc8\v2.10\pic\sources\c99\common\doprnt.c: 610:       
      +                            --i;
  2049  000582  063E               	decf	utoa@i^0,f,c
  2050  000584  A0D8               	btfss	status,0,c
  2051  000586  063F               	decf	(utoa@i+1)^0,f,c
  2052  000588                     
  2053                           ;C:\Program Files (x86)\Microchip\xc8\v2.10\pic\sources\c99\common\doprnt.c: 611:       
      +                            dbuf[i] = '0' + (n % 10);
  2054  000588  0E7D               	movlw	low _dbuf
  2055  00058A  243E               	addwf	utoa@i^0,w,c
  2056  00058C  6ED9               	movwf	fsr2l,c
  2057  00058E  0E00               	movlw	high _dbuf
  2058  000590  203F               	addwfc	(utoa@i+1)^0,w,c
  2059  000592  6EDA               	movwf	fsr2h,c
  2060  000594  C036  F003         	movff	utoa@n,___lomod@dividend
  2061  000598  C037  F004         	movff	utoa@n+1,___lomod@dividend+1
  2062  00059C  C038  F005         	movff	utoa@n+2,___lomod@dividend+2
  2063  0005A0  C039  F006         	movff	utoa@n+3,___lomod@dividend+3
  2064  0005A4  C03A  F007         	movff	utoa@n+4,___lomod@dividend+4
  2065  0005A8  C03B  F008         	movff	utoa@n+5,___lomod@dividend+5
  2066  0005AC  C03C  F009         	movff	utoa@n+6,___lomod@dividend+6
  2067  0005B0  C03D  F00A         	movff	utoa@n+7,___lomod@dividend+7
  2068  0005B4  0E0A               	movlw	10
  2069  0005B6  6E0B               	movwf	___lomod@divisor^0,c
  2070  0005B8  0E00               	movlw	0
  2071  0005BA  6E0C               	movwf	(___lomod@divisor+1)^0,c
  2072  0005BC  0E00               	movlw	0
  2073  0005BE  6E0D               	movwf	(___lomod@divisor+2)^0,c
  2074  0005C0  0E00               	movlw	0
  2075  0005C2  6E0E               	movwf	(___lomod@divisor+3)^0,c
  2076  0005C4  0E00               	movlw	0
  2077  0005C6  6E0F               	movwf	(___lomod@divisor+4)^0,c
  2078  0005C8  0E00               	movlw	0
  2079  0005CA  6E10               	movwf	(___lomod@divisor+5)^0,c
  2080  0005CC  0E00               	movlw	0
  2081  0005CE  6E11               	movwf	(___lomod@divisor+6)^0,c
  2082  0005D0  0E00               	movlw	0
  2083  0005D2  6E12               	movwf	(___lomod@divisor+7)^0,c
  2084  0005D4  ECFE  F003         	call	___lomod	;wreg free
  2085  0005D8  C003  F02A         	movff	?___lomod,??_utoa
  2086  0005DC  C004  F02B         	movff	?___lomod+1,??_utoa+1
  2087  0005E0  C005  F02C         	movff	?___lomod+2,??_utoa+2
  2088  0005E4  C006  F02D         	movff	?___lomod+3,??_utoa+3
  2089  0005E8  C007  F02E         	movff	?___lomod+4,??_utoa+4
  2090  0005EC  C008  F02F         	movff	?___lomod+5,??_utoa+5
  2091  0005F0  C009  F030         	movff	?___lomod+6,??_utoa+6
  2092  0005F4  C00A  F031         	movff	?___lomod+7,??_utoa+7
  2093  0005F8  502A               	movf	??_utoa^0,w,c
  2094  0005FA  0F30               	addlw	48
  2095  0005FC  6EDF               	movwf	indf2,c
  2096  0005FE                     
  2097                           ;C:\Program Files (x86)\Microchip\xc8\v2.10\pic\sources\c99\common\doprnt.c: 612:       
      +                            --p;
  2098  0005FE  0632               	decf	utoa@p^0,f,c
  2099  000600  A0D8               	btfss	status,0,c
  2100  000602  0633               	decf	(utoa@p+1)^0,f,c
  2101  000604                     
  2102                           ;C:\Program Files (x86)\Microchip\xc8\v2.10\pic\sources\c99\common\doprnt.c: 613:       
      +                            --w;
  2103  000604  0634               	decf	utoa@w^0,f,c
  2104  000606  A0D8               	btfss	status,0,c
  2105  000608  0635               	decf	(utoa@w+1)^0,f,c
  2106  00060A                     
  2107                           ;C:\Program Files (x86)\Microchip\xc8\v2.10\pic\sources\c99\common\doprnt.c: 614:       
      +                            n = n / 10;
  2108  00060A  C036  F003         	movff	utoa@n,___lodiv@dividend
  2109  00060E  C037  F004         	movff	utoa@n+1,___lodiv@dividend+1
  2110  000612  C038  F005         	movff	utoa@n+2,___lodiv@dividend+2
  2111  000616  C039  F006         	movff	utoa@n+3,___lodiv@dividend+3
  2112  00061A  C03A  F007         	movff	utoa@n+4,___lodiv@dividend+4
  2113  00061E  C03B  F008         	movff	utoa@n+5,___lodiv@dividend+5
  2114  000622  C03C  F009         	movff	utoa@n+6,___lodiv@dividend+6
  2115  000626  C03D  F00A         	movff	utoa@n+7,___lodiv@dividend+7
  2116  00062A  0E0A               	movlw	10
  2117  00062C  6E0B               	movwf	___lodiv@divisor^0,c
  2118  00062E  0E00               	movlw	0
  2119  000630  6E0C               	movwf	(___lodiv@divisor+1)^0,c
  2120  000632  0E00               	movlw	0
  2121  000634  6E0D               	movwf	(___lodiv@divisor+2)^0,c
  2122  000636  0E00               	movlw	0
  2123  000638  6E0E               	movwf	(___lodiv@divisor+3)^0,c
  2124  00063A  0E00               	movlw	0
  2125  00063C  6E0F               	movwf	(___lodiv@divisor+4)^0,c
  2126  00063E  0E00               	movlw	0
  2127  000640  6E10               	movwf	(___lodiv@divisor+5)^0,c
  2128  000642  0E00               	movlw	0
  2129  000644  6E11               	movwf	(___lodiv@divisor+6)^0,c
  2130  000646  0E00               	movlw	0
  2131  000648  6E12               	movwf	(___lodiv@divisor+7)^0,c
  2132  00064A  EC86  F003         	call	___lodiv	;wreg free
  2133  00064E  C003  F036         	movff	?___lodiv,utoa@n
  2134  000652  C004  F037         	movff	?___lodiv+1,utoa@n+1
  2135  000656  C005  F038         	movff	?___lodiv+2,utoa@n+2
  2136  00065A  C006  F039         	movff	?___lodiv+3,utoa@n+3
  2137  00065E  C007  F03A         	movff	?___lodiv+4,utoa@n+4
  2138  000662  C008  F03B         	movff	?___lodiv+5,utoa@n+5
  2139  000666  C009  F03C         	movff	?___lodiv+6,utoa@n+6
  2140  00066A  C00A  F03D         	movff	?___lodiv+7,utoa@n+7
  2141  00066E                     l1935:
  2142                           
  2143                           ;C:\Program Files (x86)\Microchip\xc8\v2.10\pic\sources\c99\common\doprnt.c: 609:     wh
      +                          ile (i && (n || (0 < p) || ((0 < w) && (flags & (1 << 1))))) {
  2144  00066E  503E               	movf	utoa@i^0,w,c
  2145  000670  103F               	iorwf	(utoa@i+1)^0,w,c
  2146  000672  B4D8               	btfsc	status,2,c
  2147  000674  EF3E  F003         	goto	u771
  2148  000678  EF40  F003         	goto	u770
  2149  00067C                     u771:
  2150  00067C  EF71  F003         	goto	l1945
  2151  000680                     u770:
  2152  000680  5036               	movf	utoa@n^0,w,c
  2153  000682  1037               	iorwf	(utoa@n+1)^0,w,c
  2154  000684  1038               	iorwf	(utoa@n+2)^0,w,c
  2155  000686  1039               	iorwf	(utoa@n+3)^0,w,c
  2156  000688  103A               	iorwf	(utoa@n+4)^0,w,c
  2157  00068A  103B               	iorwf	(utoa@n+5)^0,w,c
  2158  00068C  103C               	iorwf	(utoa@n+6)^0,w,c
  2159  00068E  103D               	iorwf	(utoa@n+7)^0,w,c
  2160  000690  A4D8               	btfss	status,2,c
  2161  000692  EF4D  F003         	goto	u781
  2162  000696  EF4F  F003         	goto	u780
  2163  00069A                     u781:
  2164  00069A  EFC1  F002         	goto	l1925
  2165  00069E                     u780:
  2166  00069E  BE33               	btfsc	(utoa@p+1)^0,7,c
  2167  0006A0  EF5C  F003         	goto	u790
  2168  0006A4  5033               	movf	(utoa@p+1)^0,w,c
  2169  0006A6  E106               	bnz	u791
  2170  0006A8  0432               	decf	utoa@p^0,w,c
  2171  0006AA  B0D8               	btfsc	status,0,c
  2172  0006AC  EF5A  F003         	goto	u791
  2173  0006B0  EF5C  F003         	goto	u790
  2174  0006B4                     u791:
  2175  0006B4  EFC1  F002         	goto	l1925
  2176  0006B8                     u790:
  2177  0006B8  BE35               	btfsc	(utoa@w+1)^0,7,c
  2178  0006BA  EF67  F003         	goto	u801
  2179  0006BE  5035               	movf	(utoa@w+1)^0,w,c
  2180  0006C0  E108               	bnz	u800
  2181  0006C2  0434               	decf	utoa@w^0,w,c
  2182  0006C4  A0D8               	btfss	status,0,c
  2183  0006C6  EF67  F003         	goto	u801
  2184  0006CA  EF69  F003         	goto	u800
  2185  0006CE                     u801:
  2186  0006CE  EF71  F003         	goto	l1945
  2187  0006D2                     u800:
  2188  0006D2  0100               	movlb	0	; () banked
  2189  0006D4  B366               	btfsc	_flags& (0+255),1,b
  2190  0006D6  EF6F  F003         	goto	u811
  2191  0006DA  EF71  F003         	goto	u810
  2192  0006DE                     u811:
  2193  0006DE  EFC1  F002         	goto	l1925
  2194  0006E2                     u810:
  2195  0006E2                     l1945:
  2196                           
  2197                           ;C:\Program Files (x86)\Microchip\xc8\v2.10\pic\sources\c99\common\doprnt.c: 618:     re
      +                          turn pad(fp, &dbuf[i], w);
  2198  0006E2  C020  F015         	movff	utoa@fp,pad@fp
  2199  0006E6  C021  F016         	movff	utoa@fp+1,pad@fp+1
  2200  0006EA  0E7D               	movlw	low _dbuf
  2201  0006EC  243E               	addwf	utoa@i^0,w,c
  2202  0006EE  6E17               	movwf	pad@buf^0,c
  2203  0006F0  0E00               	movlw	high _dbuf
  2204  0006F2  203F               	addwfc	(utoa@i+1)^0,w,c
  2205  0006F4  6E18               	movwf	(pad@buf+1)^0,c
  2206  0006F6  C034  F019         	movff	utoa@w,pad@p
  2207  0006FA  C035  F01A         	movff	utoa@w+1,pad@p+1
  2208  0006FE  EC66  F004         	call	_pad	;wreg free
  2209  000702  C015  F020         	movff	?_pad,?_utoa
  2210  000706  C016  F021         	movff	?_pad+1,?_utoa+1
  2211  00070A  0012               	return		;funcret
  2212  00070C                     __end_of_utoa:
  2213                           	opt callstack 0
  2214                           
  2215 ;; *************** function ___lomod *****************
  2216 ;; Defined at:
  2217 ;;		line 9 in file "C:\Program Files (x86)\Microchip\xc8\v2.10\pic\sources\c99\common\lomod.c"
  2218 ;; Parameters:    Size  Location     Type
  2219 ;;  dividend        8    2[COMRAM] unsigned long long 
  2220 ;;  divisor         8   10[COMRAM] unsigned long long 
  2221 ;; Auto vars:     Size  Location     Type
  2222 ;;  counter         1   18[COMRAM] unsigned char 
  2223 ;; Return value:  Size  Location     Type
  2224 ;;                  8    2[COMRAM] unsigned long long 
  2225 ;; Registers used:
  2226 ;;		wreg, status,2, status,0
  2227 ;; Tracked objects:
  2228 ;;		On entry : 0/0
  2229 ;;		On exit  : 0/0
  2230 ;;		Unchanged: 0/0
  2231 ;; Data sizes:     COMRAM   BANK0   BANK1   BANK2   BANK3   BANK4   BANK5   BANK6   BANK7   BANK8   BANK9  BANK10  BANK1
      +1  BANK12  BANK13  BANK14  BANK15
  2232 ;;      Params:        16       0       0       0       0       0       0       0       0       0       0       0       
      +0       0       0       0       0
  2233 ;;      Locals:         1       0       0       0       0       0       0       0       0       0       0       0       
      +0       0       0       0       0
  2234 ;;      Temps:          0       0       0       0       0       0       0       0       0       0       0       0       
      +0       0       0       0       0
  2235 ;;      Totals:        17       0       0       0       0       0       0       0       0       0       0       0       
      +0       0       0       0       0
  2236 ;;Total ram usage:       17 bytes
  2237 ;; Hardware stack levels used:    1
  2238 ;; Hardware stack levels required when called:    4
  2239 ;; This function calls:
  2240 ;;		Nothing
  2241 ;; This function is called by:
  2242 ;;		_utoa
  2243 ;; This function uses a non-reentrant model
  2244 ;;
  2245                           
  2246                           	psect	text5
  2247  0007FC                     __ptext5:
  2248                           	opt callstack 0
  2249  0007FC                     ___lomod:
  2250                           	opt callstack 22
  2251  0007FC  500B               	movf	___lomod@divisor^0,w,c
  2252  0007FE  100C               	iorwf	(___lomod@divisor+1)^0,w,c
  2253  000800  100D               	iorwf	(___lomod@divisor+2)^0,w,c
  2254  000802  100E               	iorwf	(___lomod@divisor+3)^0,w,c
  2255  000804  100F               	iorwf	(___lomod@divisor+4)^0,w,c
  2256  000806  1010               	iorwf	(___lomod@divisor+5)^0,w,c
  2257  000808  1011               	iorwf	(___lomod@divisor+6)^0,w,c
  2258  00080A  1012               	iorwf	(___lomod@divisor+7)^0,w,c
  2259  00080C  B4D8               	btfsc	status,2,c
  2260  00080E  EF0B  F004         	goto	u711
  2261  000812  EF0D  F004         	goto	u710
  2262  000816                     u711:
  2263  000816  EF55  F004         	goto	l971
  2264  00081A                     u710:
  2265  00081A  0E01               	movlw	1
  2266  00081C  6E13               	movwf	___lomod@counter^0,c
  2267  00081E  EF1B  F004         	goto	l1889
  2268  000822                     l1887:
  2269  000822  90D8               	bcf	status,0,c
  2270  000824  360B               	rlcf	___lomod@divisor^0,f,c
  2271  000826  360C               	rlcf	(___lomod@divisor+1)^0,f,c
  2272  000828  360D               	rlcf	(___lomod@divisor+2)^0,f,c
  2273  00082A  360E               	rlcf	(___lomod@divisor+3)^0,f,c
  2274  00082C  360F               	rlcf	(___lomod@divisor+4)^0,f,c
  2275  00082E  3610               	rlcf	(___lomod@divisor+5)^0,f,c
  2276  000830  3611               	rlcf	(___lomod@divisor+6)^0,f,c
  2277  000832  3612               	rlcf	(___lomod@divisor+7)^0,f,c
  2278  000834  2A13               	incf	___lomod@counter^0,f,c
  2279  000836                     l1889:
  2280  000836  AE12               	btfss	(___lomod@divisor+7)^0,7,c
  2281  000838  EF20  F004         	goto	u721
  2282  00083C  EF22  F004         	goto	u720
  2283  000840                     u721:
  2284  000840  EF11  F004         	goto	l1887
  2285  000844                     u720:
  2286  000844                     l1891:
  2287  000844  500B               	movf	___lomod@divisor^0,w,c
  2288  000846  5C03               	subwf	___lomod@dividend^0,w,c
  2289  000848  500C               	movf	(___lomod@divisor+1)^0,w,c
  2290  00084A  5804               	subwfb	(___lomod@dividend+1)^0,w,c
  2291  00084C  500D               	movf	(___lomod@divisor+2)^0,w,c
  2292  00084E  5805               	subwfb	(___lomod@dividend+2)^0,w,c
  2293  000850  500E               	movf	(___lomod@divisor+3)^0,w,c
  2294  000852  5806               	subwfb	(___lomod@dividend+3)^0,w,c
  2295  000854  500F               	movf	(___lomod@divisor+4)^0,w,c
  2296  000856  5807               	subwfb	(___lomod@dividend+4)^0,w,c
  2297  000858  5010               	movf	(___lomod@divisor+5)^0,w,c
  2298  00085A  5808               	subwfb	(___lomod@dividend+5)^0,w,c
  2299  00085C  5011               	movf	(___lomod@divisor+6)^0,w,c
  2300  00085E  5809               	subwfb	(___lomod@dividend+6)^0,w,c
  2301  000860  5012               	movf	(___lomod@divisor+7)^0,w,c
  2302  000862  580A               	subwfb	(___lomod@dividend+7)^0,w,c
  2303  000864  A0D8               	btfss	status,0,c
  2304  000866  EF37  F004         	goto	u731
  2305  00086A  EF39  F004         	goto	u730
  2306  00086E                     u731:
  2307  00086E  EF49  F004         	goto	l1895
  2308  000872                     u730:
  2309  000872  500B               	movf	___lomod@divisor^0,w,c
  2310  000874  5E03               	subwf	___lomod@dividend^0,f,c
  2311  000876  500C               	movf	(___lomod@divisor+1)^0,w,c
  2312  000878  5A04               	subwfb	(___lomod@dividend+1)^0,f,c
  2313  00087A  500D               	movf	(___lomod@divisor+2)^0,w,c
  2314  00087C  5A05               	subwfb	(___lomod@dividend+2)^0,f,c
  2315  00087E  500E               	movf	(___lomod@divisor+3)^0,w,c
  2316  000880  5A06               	subwfb	(___lomod@dividend+3)^0,f,c
  2317  000882  500F               	movf	(___lomod@divisor+4)^0,w,c
  2318  000884  5A07               	subwfb	(___lomod@dividend+4)^0,f,c
  2319  000886  5010               	movf	(___lomod@divisor+5)^0,w,c
  2320  000888  5A08               	subwfb	(___lomod@dividend+5)^0,f,c
  2321  00088A  5011               	movf	(___lomod@divisor+6)^0,w,c
  2322  00088C  5A09               	subwfb	(___lomod@dividend+6)^0,f,c
  2323  00088E  5012               	movf	(___lomod@divisor+7)^0,w,c
  2324  000890  5A0A               	subwfb	(___lomod@dividend+7)^0,f,c
  2325  000892                     l1895:
  2326  000892  90D8               	bcf	status,0,c
  2327  000894  3212               	rrcf	(___lomod@divisor+7)^0,f,c
  2328  000896  3211               	rrcf	(___lomod@divisor+6)^0,f,c
  2329  000898  3210               	rrcf	(___lomod@divisor+5)^0,f,c
  2330  00089A  320F               	rrcf	(___lomod@divisor+4)^0,f,c
  2331  00089C  320E               	rrcf	(___lomod@divisor+3)^0,f,c
  2332  00089E  320D               	rrcf	(___lomod@divisor+2)^0,f,c
  2333  0008A0  320C               	rrcf	(___lomod@divisor+1)^0,f,c
  2334  0008A2  320B               	rrcf	___lomod@divisor^0,f,c
  2335  0008A4  2E13               	decfsz	___lomod@counter^0,f,c
  2336  0008A6  EF22  F004         	goto	l1891
  2337  0008AA                     l971:
  2338  0008AA  C003  F003         	movff	___lomod@dividend,?___lomod
  2339  0008AE  C004  F004         	movff	___lomod@dividend+1,?___lomod+1
  2340  0008B2  C005  F005         	movff	___lomod@dividend+2,?___lomod+2
  2341  0008B6  C006  F006         	movff	___lomod@dividend+3,?___lomod+3
  2342  0008BA  C007  F007         	movff	___lomod@dividend+4,?___lomod+4
  2343  0008BE  C008  F008         	movff	___lomod@dividend+5,?___lomod+5
  2344  0008C2  C009  F009         	movff	___lomod@dividend+6,?___lomod+6
  2345  0008C6  C00A  F00A         	movff	___lomod@dividend+7,?___lomod+7
  2346  0008CA  0012               	return		;funcret
  2347  0008CC                     __end_of___lomod:
  2348                           	opt callstack 0
  2349                           
  2350 ;; *************** function ___lodiv *****************
  2351 ;; Defined at:
  2352 ;;		line 9 in file "C:\Program Files (x86)\Microchip\xc8\v2.10\pic\sources\c99\common\lodiv.c"
  2353 ;; Parameters:    Size  Location     Type
  2354 ;;  dividend        8    2[COMRAM] unsigned long long 
  2355 ;;  divisor         8   10[COMRAM] unsigned long long 
  2356 ;; Auto vars:     Size  Location     Type
  2357 ;;  quotient        8   18[COMRAM] unsigned long long 
  2358 ;;  counter         1   26[COMRAM] unsigned char 
  2359 ;; Return value:  Size  Location     Type
  2360 ;;                  8    2[COMRAM] unsigned long long 
  2361 ;; Registers used:
  2362 ;;		wreg, fsr2l, fsr2h, status,2, status,0
  2363 ;; Tracked objects:
  2364 ;;		On entry : 0/0
  2365 ;;		On exit  : 0/0
  2366 ;;		Unchanged: 0/0
  2367 ;; Data sizes:     COMRAM   BANK0   BANK1   BANK2   BANK3   BANK4   BANK5   BANK6   BANK7   BANK8   BANK9  BANK10  BANK1
      +1  BANK12  BANK13  BANK14  BANK15
  2368 ;;      Params:        16       0       0       0       0       0       0       0       0       0       0       0       
      +0       0       0       0       0
  2369 ;;      Locals:         9       0       0       0       0       0       0       0       0       0       0       0       
      +0       0       0       0       0
  2370 ;;      Temps:          0       0       0       0       0       0       0       0       0       0       0       0       
      +0       0       0       0       0
  2371 ;;      Totals:        25       0       0       0       0       0       0       0       0       0       0       0       
      +0       0       0       0       0
  2372 ;;Total ram usage:       25 bytes
  2373 ;; Hardware stack levels used:    1
  2374 ;; Hardware stack levels required when called:    4
  2375 ;; This function calls:
  2376 ;;		Nothing
  2377 ;; This function is called by:
  2378 ;;		_utoa
  2379 ;; This function uses a non-reentrant model
  2380 ;;
  2381                           
  2382                           	psect	text6
  2383  00070C                     __ptext6:
  2384                           	opt callstack 0
  2385  00070C                     ___lodiv:
  2386                           	opt callstack 22
  2387  00070C  EE20  F013         	lfsr	2,___lodiv@quotient
  2388  000710  0E07               	movlw	7
  2389  000712                     u671:
  2390  000712  6ADE               	clrf	postinc2,c
  2391  000714  06E8               	decf	wreg,f,c
  2392  000716  E2FD               	bc	u671
  2393  000718  500B               	movf	___lodiv@divisor^0,w,c
  2394  00071A  100C               	iorwf	(___lodiv@divisor+1)^0,w,c
  2395  00071C  100D               	iorwf	(___lodiv@divisor+2)^0,w,c
  2396  00071E  100E               	iorwf	(___lodiv@divisor+3)^0,w,c
  2397  000720  100F               	iorwf	(___lodiv@divisor+4)^0,w,c
  2398  000722  1010               	iorwf	(___lodiv@divisor+5)^0,w,c
  2399  000724  1011               	iorwf	(___lodiv@divisor+6)^0,w,c
  2400  000726  1012               	iorwf	(___lodiv@divisor+7)^0,w,c
  2401  000728  B4D8               	btfsc	status,2,c
  2402  00072A  EF99  F003         	goto	u681
  2403  00072E  EF9B  F003         	goto	u680
  2404  000732                     u681:
  2405  000732  EFED  F003         	goto	l961
  2406  000736                     u680:
  2407  000736  0E01               	movlw	1
  2408  000738  6E1B               	movwf	___lodiv@counter^0,c
  2409  00073A  EFA9  F003         	goto	l1869
  2410  00073E                     l1867:
  2411  00073E  90D8               	bcf	status,0,c
  2412  000740  360B               	rlcf	___lodiv@divisor^0,f,c
  2413  000742  360C               	rlcf	(___lodiv@divisor+1)^0,f,c
  2414  000744  360D               	rlcf	(___lodiv@divisor+2)^0,f,c
  2415  000746  360E               	rlcf	(___lodiv@divisor+3)^0,f,c
  2416  000748  360F               	rlcf	(___lodiv@divisor+4)^0,f,c
  2417  00074A  3610               	rlcf	(___lodiv@divisor+5)^0,f,c
  2418  00074C  3611               	rlcf	(___lodiv@divisor+6)^0,f,c
  2419  00074E  3612               	rlcf	(___lodiv@divisor+7)^0,f,c
  2420  000750  2A1B               	incf	___lodiv@counter^0,f,c
  2421  000752                     l1869:
  2422  000752  AE12               	btfss	(___lodiv@divisor+7)^0,7,c
  2423  000754  EFAE  F003         	goto	u691
  2424  000758  EFB0  F003         	goto	u690
  2425  00075C                     u691:
  2426  00075C  EF9F  F003         	goto	l1867
  2427  000760                     u690:
  2428  000760                     l1871:
  2429  000760  90D8               	bcf	status,0,c
  2430  000762  3613               	rlcf	___lodiv@quotient^0,f,c
  2431  000764  3614               	rlcf	(___lodiv@quotient+1)^0,f,c
  2432  000766  3615               	rlcf	(___lodiv@quotient+2)^0,f,c
  2433  000768  3616               	rlcf	(___lodiv@quotient+3)^0,f,c
  2434  00076A  3617               	rlcf	(___lodiv@quotient+4)^0,f,c
  2435  00076C  3618               	rlcf	(___lodiv@quotient+5)^0,f,c
  2436  00076E  3619               	rlcf	(___lodiv@quotient+6)^0,f,c
  2437  000770  361A               	rlcf	(___lodiv@quotient+7)^0,f,c
  2438  000772  500B               	movf	___lodiv@divisor^0,w,c
  2439  000774  5C03               	subwf	___lodiv@dividend^0,w,c
  2440  000776  500C               	movf	(___lodiv@divisor+1)^0,w,c
  2441  000778  5804               	subwfb	(___lodiv@dividend+1)^0,w,c
  2442  00077A  500D               	movf	(___lodiv@divisor+2)^0,w,c
  2443  00077C  5805               	subwfb	(___lodiv@dividend+2)^0,w,c
  2444  00077E  500E               	movf	(___lodiv@divisor+3)^0,w,c
  2445  000780  5806               	subwfb	(___lodiv@dividend+3)^0,w,c
  2446  000782  500F               	movf	(___lodiv@divisor+4)^0,w,c
  2447  000784  5807               	subwfb	(___lodiv@dividend+4)^0,w,c
  2448  000786  5010               	movf	(___lodiv@divisor+5)^0,w,c
  2449  000788  5808               	subwfb	(___lodiv@dividend+5)^0,w,c
  2450  00078A  5011               	movf	(___lodiv@divisor+6)^0,w,c
  2451  00078C  5809               	subwfb	(___lodiv@dividend+6)^0,w,c
  2452  00078E  5012               	movf	(___lodiv@divisor+7)^0,w,c
  2453  000790  580A               	subwfb	(___lodiv@dividend+7)^0,w,c
  2454  000792  A0D8               	btfss	status,0,c
  2455  000794  EFCE  F003         	goto	u701
  2456  000798  EFD0  F003         	goto	u700
  2457  00079C                     u701:
  2458  00079C  EFE1  F003         	goto	l1879
  2459  0007A0                     u700:
  2460  0007A0  500B               	movf	___lodiv@divisor^0,w,c
  2461  0007A2  5E03               	subwf	___lodiv@dividend^0,f,c
  2462  0007A4  500C               	movf	(___lodiv@divisor+1)^0,w,c
  2463  0007A6  5A04               	subwfb	(___lodiv@dividend+1)^0,f,c
  2464  0007A8  500D               	movf	(___lodiv@divisor+2)^0,w,c
  2465  0007AA  5A05               	subwfb	(___lodiv@dividend+2)^0,f,c
  2466  0007AC  500E               	movf	(___lodiv@divisor+3)^0,w,c
  2467  0007AE  5A06               	subwfb	(___lodiv@dividend+3)^0,f,c
  2468  0007B0  500F               	movf	(___lodiv@divisor+4)^0,w,c
  2469  0007B2  5A07               	subwfb	(___lodiv@dividend+4)^0,f,c
  2470  0007B4  5010               	movf	(___lodiv@divisor+5)^0,w,c
  2471  0007B6  5A08               	subwfb	(___lodiv@dividend+5)^0,f,c
  2472  0007B8  5011               	movf	(___lodiv@divisor+6)^0,w,c
  2473  0007BA  5A09               	subwfb	(___lodiv@dividend+6)^0,f,c
  2474  0007BC  5012               	movf	(___lodiv@divisor+7)^0,w,c
  2475  0007BE  5A0A               	subwfb	(___lodiv@dividend+7)^0,f,c
  2476  0007C0  8013               	bsf	___lodiv@quotient^0,0,c
  2477  0007C2                     l1879:
  2478  0007C2  90D8               	bcf	status,0,c
  2479  0007C4  3212               	rrcf	(___lodiv@divisor+7)^0,f,c
  2480  0007C6  3211               	rrcf	(___lodiv@divisor+6)^0,f,c
  2481  0007C8  3210               	rrcf	(___lodiv@divisor+5)^0,f,c
  2482  0007CA  320F               	rrcf	(___lodiv@divisor+4)^0,f,c
  2483  0007CC  320E               	rrcf	(___lodiv@divisor+3)^0,f,c
  2484  0007CE  320D               	rrcf	(___lodiv@divisor+2)^0,f,c
  2485  0007D0  320C               	rrcf	(___lodiv@divisor+1)^0,f,c
  2486  0007D2  320B               	rrcf	___lodiv@divisor^0,f,c
  2487  0007D4  2E1B               	decfsz	___lodiv@counter^0,f,c
  2488  0007D6  EFB0  F003         	goto	l1871
  2489  0007DA                     l961:
  2490  0007DA  C013  F003         	movff	___lodiv@quotient,?___lodiv
  2491  0007DE  C014  F004         	movff	___lodiv@quotient+1,?___lodiv+1
  2492  0007E2  C015  F005         	movff	___lodiv@quotient+2,?___lodiv+2
  2493  0007E6  C016  F006         	movff	___lodiv@quotient+3,?___lodiv+3
  2494  0007EA  C017  F007         	movff	___lodiv@quotient+4,?___lodiv+4
  2495  0007EE  C018  F008         	movff	___lodiv@quotient+5,?___lodiv+5
  2496  0007F2  C019  F009         	movff	___lodiv@quotient+6,?___lodiv+6
  2497  0007F6  C01A  F00A         	movff	___lodiv@quotient+7,?___lodiv+7
  2498  0007FA  0012               	return		;funcret
  2499  0007FC                     __end_of___lodiv:
  2500                           	opt callstack 0
  2501                           
  2502 ;; *************** function _ctoa *****************
  2503 ;; Defined at:
  2504 ;;		line 259 in file "C:\Program Files (x86)\Microchip\xc8\v2.10\pic\sources\c99\common\doprnt.c"
  2505 ;; Parameters:    Size  Location     Type
  2506 ;;  fp              2   31[COMRAM] PTR struct _IO_FILE
  2507 ;;		 -> NULL(0), 
  2508 ;;  c               1   33[COMRAM] unsigned char 
  2509 ;; Auto vars:     Size  Location     Type
  2510 ;;  w               2   34[COMRAM] int 
  2511 ;;  l               2    0        int 
  2512 ;; Return value:  Size  Location     Type
  2513 ;;                  2   31[COMRAM] int 
  2514 ;; Registers used:
  2515 ;;		wreg, fsr1l, fsr1h, fsr2l, fsr2h, status,2, status,0, cstack
  2516 ;; Tracked objects:
  2517 ;;		On entry : 0/0
  2518 ;;		On exit  : 0/0
  2519 ;;		Unchanged: 0/0
  2520 ;; Data sizes:     COMRAM   BANK0   BANK1   BANK2   BANK3   BANK4   BANK5   BANK6   BANK7   BANK8   BANK9  BANK10  BANK1
      +1  BANK12  BANK13  BANK14  BANK15
  2521 ;;      Params:         3       0       0       0       0       0       0       0       0       0       0       0       
      +0       0       0       0       0
  2522 ;;      Locals:         2       0       0       0       0       0       0       0       0       0       0       0       
      +0       0       0       0       0
  2523 ;;      Temps:          0       0       0       0       0       0       0       0       0       0       0       0       
      +0       0       0       0       0
  2524 ;;      Totals:         5       0       0       0       0       0       0       0       0       0       0       0       
      +0       0       0       0       0
  2525 ;;Total ram usage:        5 bytes
  2526 ;; Hardware stack levels used:    1
  2527 ;; Hardware stack levels required when called:    9
  2528 ;; This function calls:
  2529 ;;		_pad
  2530 ;; This function is called by:
  2531 ;;		_vfpfcnvrt
  2532 ;; This function uses a non-reentrant model
  2533 ;;
  2534                           
  2535                           	psect	text7
  2536  000A8C                     __ptext7:
  2537                           	opt callstack 0
  2538  000A8C                     _ctoa:
  2539                           	opt callstack 18
  2540  000A8C                     
  2541                           ;C:\Program Files (x86)\Microchip\xc8\v2.10\pic\sources\c99\common\doprnt.c: 259: static
      +                           int ctoa(FILE *fp, char c);C:\Program Files (x86)\Microchip\xc8\v2.10\pic\sources\c99\c
      +                          ommon\doprnt.c: 260: {;C:\Program Files (x86)\Microchip\xc8\v2.10\pic\sources\c99\common
      +                          \doprnt.c: 261:     int l, w;;C:\Program Files (x86)\Microchip\xc8\v2.10\pic\sources\c99
      +                          \common\doprnt.c: 264:     w = width ? width - 1 : width;
  2542  000A8C  0100               	movlb	0	; () banked
  2543  000A8E  5162               	movf	_width& (0+255),w,b
  2544  000A90  1163               	iorwf	(_width+1)& (0+255),w,b
  2545  000A92  A4D8               	btfss	status,2,c
  2546  000A94  EF4E  F005         	goto	u741
  2547  000A98  EF50  F005         	goto	u740
  2548  000A9C                     u741:
  2549  000A9C  EF56  F005         	goto	l1903
  2550  000AA0                     u740:
  2551  000AA0                     
  2552                           ; BSR set to: 0
  2553  000AA0  C062  F023         	movff	_width,ctoa@w
  2554  000AA4  C063  F024         	movff	_width+1,ctoa@w+1
  2555  000AA8  EF5C  F005         	goto	l1905
  2556  000AAC                     l1903:
  2557                           
  2558                           ; BSR set to: 0
  2559  000AAC  0EFF               	movlw	255
  2560  000AAE  2562               	addwf	_width& (0+255),w,b
  2561  000AB0  6E23               	movwf	ctoa@w^0,c
  2562  000AB2  0EFF               	movlw	255
  2563  000AB4  2163               	addwfc	(_width+1)& (0+255),w,b
  2564  000AB6  6E24               	movwf	(ctoa@w+1)^0,c
  2565  000AB8                     l1905:
  2566                           
  2567                           ; BSR set to: 0
  2568                           ;C:\Program Files (x86)\Microchip\xc8\v2.10\pic\sources\c99\common\doprnt.c: 267:     db
      +                          uf[0] = c;
  2569  000AB8  C022  F07D         	movff	ctoa@c,_dbuf
  2570  000ABC                     
  2571                           ; BSR set to: 0
  2572                           ;C:\Program Files (x86)\Microchip\xc8\v2.10\pic\sources\c99\common\doprnt.c: 268:     db
      +                          uf[1] = '\0';
  2573  000ABC  0E00               	movlw	0
  2574  000ABE  6F7E               	movwf	(_dbuf+1)& (0+255),b
  2575  000AC0                     
  2576                           ; BSR set to: 0
  2577                           ;C:\Program Files (x86)\Microchip\xc8\v2.10\pic\sources\c99\common\doprnt.c: 269:     re
      +                          turn pad(fp, &dbuf[0], w);
  2578  000AC0  C020  F015         	movff	ctoa@fp,pad@fp
  2579  000AC4  C021  F016         	movff	ctoa@fp+1,pad@fp+1
  2580  000AC8  0E7D               	movlw	low _dbuf
  2581  000ACA  6E17               	movwf	pad@buf^0,c
  2582  000ACC  0E00               	movlw	high _dbuf
  2583  000ACE  6E18               	movwf	(pad@buf+1)^0,c
  2584  000AD0  C023  F019         	movff	ctoa@w,pad@p
  2585  000AD4  C024  F01A         	movff	ctoa@w+1,pad@p+1
  2586  000AD8  EC66  F004         	call	_pad	;wreg free
  2587  000ADC  C015  F020         	movff	?_pad,?_ctoa
  2588  000AE0  C016  F021         	movff	?_pad+1,?_ctoa+1
  2589  000AE4  0012               	return		;funcret
  2590  000AE6                     __end_of_ctoa:
  2591                           	opt callstack 0
  2592                           
  2593 ;; *************** function _pad *****************
  2594 ;; Defined at:
  2595 ;;		line 72 in file "C:\Program Files (x86)\Microchip\xc8\v2.10\pic\sources\c99\common\doprnt.c"
  2596 ;; Parameters:    Size  Location     Type
  2597 ;;  fp              2   20[COMRAM] PTR struct _IO_FILE
  2598 ;;		 -> NULL(0), 
  2599 ;;  buf             2   22[COMRAM] PTR unsigned char 
  2600 ;;		 -> dbuf(32), 
  2601 ;;  p               2   24[COMRAM] int 
  2602 ;; Auto vars:     Size  Location     Type
  2603 ;;  w               2   29[COMRAM] int 
  2604 ;;  i               2   27[COMRAM] int 
  2605 ;; Return value:  Size  Location     Type
  2606 ;;                  2   20[COMRAM] int 
  2607 ;; Registers used:
  2608 ;;		wreg, fsr1l, fsr1h, fsr2l, fsr2h, status,2, status,0, cstack
  2609 ;; Tracked objects:
  2610 ;;		On entry : 0/0
  2611 ;;		On exit  : 0/0
  2612 ;;		Unchanged: 0/0
  2613 ;; Data sizes:     COMRAM   BANK0   BANK1   BANK2   BANK3   BANK4   BANK5   BANK6   BANK7   BANK8   BANK9  BANK10  BANK1
      +1  BANK12  BANK13  BANK14  BANK15
  2614 ;;      Params:         6       0       0       0       0       0       0       0       0       0       0       0       
      +0       0       0       0       0
  2615 ;;      Locals:         4       0       0       0       0       0       0       0       0       0       0       0       
      +0       0       0       0       0
  2616 ;;      Temps:          1       0       0       0       0       0       0       0       0       0       0       0       
      +0       0       0       0       0
  2617 ;;      Totals:        11       0       0       0       0       0       0       0       0       0       0       0       
      +0       0       0       0       0
  2618 ;;Total ram usage:       11 bytes
  2619 ;; Hardware stack levels used:    1
  2620 ;; Hardware stack levels required when called:    8
  2621 ;; This function calls:
  2622 ;;		_fputc
  2623 ;;		_fputs
  2624 ;;		_strlen
  2625 ;; This function is called by:
  2626 ;;		_ctoa
  2627 ;;		_utoa
  2628 ;; This function uses a non-reentrant model
  2629 ;;
  2630                           
  2631                           	psect	text8
  2632  0008CC                     __ptext8:
  2633                           	opt callstack 0
  2634  0008CC                     _pad:
  2635                           	opt callstack 18
  2636  0008CC                     
  2637                           ;C:\Program Files (x86)\Microchip\xc8\v2.10\pic\sources\c99\common\doprnt.c: 72: static 
      +                          int pad(FILE *fp, char *buf, int p);C:\Program Files (x86)\Microchip\xc8\v2.10\pic\sourc
      +                          es\c99\common\doprnt.c: 73: {;C:\Program Files (x86)\Microchip\xc8\v2.10\pic\sources\c99
      +                          \common\doprnt.c: 74:     int i, w;;C:\Program Files (x86)\Microchip\xc8\v2.10\pic\sourc
      +                          es\c99\common\doprnt.c: 77:     if (flags & (1 << 0)) {
  2638  0008CC  0100               	movlb	0	; () banked
  2639  0008CE  A166               	btfss	_flags& (0+255),0,b
  2640  0008D0  EF6C  F004         	goto	u631
  2641  0008D4  EF6E  F004         	goto	u630
  2642  0008D8                     u631:
  2643  0008D8  EF78  F004         	goto	l1843
  2644  0008DC                     u630:
  2645  0008DC                     
  2646                           ; BSR set to: 0
  2647                           ;C:\Program Files (x86)\Microchip\xc8\v2.10\pic\sources\c99\common\doprnt.c: 78:        
      +                           fputs((const char *)buf, fp);
  2648  0008DC  C017  F00E         	movff	pad@buf,fputs@s
  2649  0008E0  C018  F00F         	movff	pad@buf+1,fputs@s+1
  2650  0008E4  C015  F010         	movff	pad@fp,fputs@fp
  2651  0008E8  C016  F011         	movff	pad@fp+1,fputs@fp+1
  2652  0008EC  EC73  F005         	call	_fputs	;wreg free
  2653  0008F0                     l1843:
  2654                           
  2655                           ;C:\Program Files (x86)\Microchip\xc8\v2.10\pic\sources\c99\common\doprnt.c: 82:     w =
      +                           (p < 0) ? 0 : p;
  2656  0008F0  BE1A               	btfsc	(pad@p+1)^0,7,c
  2657  0008F2  EF7D  F004         	goto	u641
  2658  0008F6  EF7F  F004         	goto	u640
  2659  0008FA                     u641:
  2660  0008FA  EF85  F004         	goto	l1847
  2661  0008FE                     u640:
  2662  0008FE  C019  F01E         	movff	pad@p,pad@w
  2663  000902  C01A  F01F         	movff	pad@p+1,pad@w+1
  2664  000906  EF89  F004         	goto	l480
  2665  00090A                     l1847:
  2666  00090A  0E00               	movlw	0
  2667  00090C  6E1F               	movwf	(pad@w+1)^0,c
  2668  00090E  0E00               	movlw	0
  2669  000910  6E1E               	movwf	pad@w^0,c
  2670  000912                     l480:
  2671                           
  2672                           ;C:\Program Files (x86)\Microchip\xc8\v2.10\pic\sources\c99\common\doprnt.c: 83:     i =
      +                           0;
  2673  000912  0E00               	movlw	0
  2674  000914  6E1D               	movwf	(pad@i+1)^0,c
  2675  000916  0E00               	movlw	0
  2676  000918  6E1C               	movwf	pad@i^0,c
  2677                           
  2678                           ;C:\Program Files (x86)\Microchip\xc8\v2.10\pic\sources\c99\common\doprnt.c: 84:     whi
      +                          le (i < w) {
  2679  00091A  EF9B  F004         	goto	l1853
  2680  00091E                     l1849:
  2681                           
  2682                           ;C:\Program Files (x86)\Microchip\xc8\v2.10\pic\sources\c99\common\doprnt.c: 85:        
      +                           fputc(' ', fp);
  2683  00091E  0E00               	movlw	0
  2684  000920  6E06               	movwf	(fputc@c+1)^0,c
  2685  000922  0E20               	movlw	32
  2686  000924  6E05               	movwf	fputc@c^0,c
  2687  000926  C015  F007         	movff	pad@fp,fputc@fp
  2688  00092A  C016  F008         	movff	pad@fp+1,fputc@fp+1
  2689  00092E  ECC9  F004         	call	_fputc	;wreg free
  2690  000932                     
  2691                           ;C:\Program Files (x86)\Microchip\xc8\v2.10\pic\sources\c99\common\doprnt.c: 86:        
      +                           ++i;
  2692  000932  4A1C               	infsnz	pad@i^0,f,c
  2693  000934  2A1D               	incf	(pad@i+1)^0,f,c
  2694  000936                     l1853:
  2695                           
  2696                           ;C:\Program Files (x86)\Microchip\xc8\v2.10\pic\sources\c99\common\doprnt.c: 84:     whi
      +                          le (i < w) {
  2697  000936  501E               	movf	pad@w^0,w,c
  2698  000938  5C1C               	subwf	pad@i^0,w,c
  2699  00093A  501D               	movf	(pad@i+1)^0,w,c
  2700  00093C  0A80               	xorlw	128
  2701  00093E  6E1B               	movwf	??_pad^0,c
  2702  000940  501F               	movf	(pad@w+1)^0,w,c
  2703  000942  0A80               	xorlw	128
  2704  000944  581B               	subwfb	??_pad^0,w,c
  2705  000946  A0D8               	btfss	status,0,c
  2706  000948  EFA8  F004         	goto	u651
  2707  00094C  EFAA  F004         	goto	u650
  2708  000950                     u651:
  2709  000950  EF8F  F004         	goto	l1849
  2710  000954                     u650:
  2711  000954                     
  2712                           ;C:\Program Files (x86)\Microchip\xc8\v2.10\pic\sources\c99\common\doprnt.c: 90:     if 
      +                          (!(flags & (1 << 0))) {
  2713  000954  0100               	movlb	0	; () banked
  2714  000956  B166               	btfsc	_flags& (0+255),0,b
  2715  000958  EFB0  F004         	goto	u661
  2716  00095C  EFB2  F004         	goto	u660
  2717  000960                     u661:
  2718  000960  EFBC  F004         	goto	l1857
  2719  000964                     u660:
  2720  000964                     
  2721                           ; BSR set to: 0
  2722                           ;C:\Program Files (x86)\Microchip\xc8\v2.10\pic\sources\c99\common\doprnt.c: 91:        
      +                           fputs((const char *)buf, fp);
  2723  000964  C017  F00E         	movff	pad@buf,fputs@s
  2724  000968  C018  F00F         	movff	pad@buf+1,fputs@s+1
  2725  00096C  C015  F010         	movff	pad@fp,fputs@fp
  2726  000970  C016  F011         	movff	pad@fp+1,fputs@fp+1
  2727  000974  EC73  F005         	call	_fputs	;wreg free
  2728  000978                     l1857:
  2729                           
  2730                           ;C:\Program Files (x86)\Microchip\xc8\v2.10\pic\sources\c99\common\doprnt.c: 94:     ret
      +                          urn strlen(buf) + w;
  2731  000978  C017  F003         	movff	pad@buf,strlen@s
  2732  00097C  C018  F004         	movff	pad@buf+1,strlen@s+1
  2733  000980  ECD4  F005         	call	_strlen	;wreg free
  2734  000984  501E               	movf	pad@w^0,w,c
  2735  000986  2403               	addwf	?_strlen^0,w,c
  2736  000988  6E15               	movwf	?_pad^0,c
  2737  00098A  501F               	movf	(pad@w+1)^0,w,c
  2738  00098C  2004               	addwfc	(?_strlen+1)^0,w,c
  2739  00098E  6E16               	movwf	(?_pad+1)^0,c
  2740  000990  0012               	return		;funcret
  2741  000992                     __end_of_pad:
  2742                           	opt callstack 0
  2743                           
  2744 ;; *************** function _strlen *****************
  2745 ;; Defined at:
  2746 ;;		line 5 in file "C:\Program Files (x86)\Microchip\xc8\v2.10\pic\sources\c99\common\strlen.c"
  2747 ;; Parameters:    Size  Location     Type
  2748 ;;  s               2    2[COMRAM] PTR const unsigned char 
  2749 ;;		 -> dbuf(32), 
  2750 ;; Auto vars:     Size  Location     Type
  2751 ;;  a               2    4[COMRAM] PTR const unsigned char 
  2752 ;;		 -> dbuf(32), 
  2753 ;; Return value:  Size  Location     Type
  2754 ;;                  2    2[COMRAM] unsigned int 
  2755 ;; Registers used:
  2756 ;;		wreg, fsr2l, fsr2h, status,2, status,0
  2757 ;; Tracked objects:
  2758 ;;		On entry : 0/0
  2759 ;;		On exit  : 0/0
  2760 ;;		Unchanged: 0/0
  2761 ;; Data sizes:     COMRAM   BANK0   BANK1   BANK2   BANK3   BANK4   BANK5   BANK6   BANK7   BANK8   BANK9  BANK10  BANK1
      +1  BANK12  BANK13  BANK14  BANK15
  2762 ;;      Params:         2       0       0       0       0       0       0       0       0       0       0       0       
      +0       0       0       0       0
  2763 ;;      Locals:         2       0       0       0       0       0       0       0       0       0       0       0       
      +0       0       0       0       0
  2764 ;;      Temps:          0       0       0       0       0       0       0       0       0       0       0       0       
      +0       0       0       0       0
  2765 ;;      Totals:         4       0       0       0       0       0       0       0       0       0       0       0       
      +0       0       0       0       0
  2766 ;;Total ram usage:        4 bytes
  2767 ;; Hardware stack levels used:    1
  2768 ;; Hardware stack levels required when called:    4
  2769 ;; This function calls:
  2770 ;;		Nothing
  2771 ;; This function is called by:
  2772 ;;		_pad
  2773 ;; This function uses a non-reentrant model
  2774 ;;
  2775                           
  2776                           	psect	text9
  2777  000BA8                     __ptext9:
  2778                           	opt callstack 0
  2779  000BA8                     _strlen:
  2780                           	opt callstack 21
  2781  000BA8  C003  F005         	movff	strlen@s,strlen@a
  2782  000BAC  C004  F006         	movff	strlen@s+1,strlen@a+1
  2783  000BB0  EFDC  F005         	goto	l1833
  2784  000BB4                     l1831:
  2785  000BB4  4A03               	infsnz	strlen@s^0,f,c
  2786  000BB6  2A04               	incf	(strlen@s+1)^0,f,c
  2787  000BB8                     l1833:
  2788  000BB8  C003  FFD9         	movff	strlen@s,fsr2l
  2789  000BBC  C004  FFDA         	movff	strlen@s+1,fsr2h
  2790  000BC0  50DF               	movf	indf2,w,c
  2791  000BC2  A4D8               	btfss	status,2,c
  2792  000BC4  EFE6  F005         	goto	u621
  2793  000BC8  EFE8  F005         	goto	u620
  2794  000BCC                     u621:
  2795  000BCC  EFDA  F005         	goto	l1831
  2796  000BD0                     u620:
  2797  000BD0  5005               	movf	strlen@a^0,w,c
  2798  000BD2  5C03               	subwf	strlen@s^0,w,c
  2799  000BD4  6E03               	movwf	?_strlen^0,c
  2800  000BD6  5006               	movf	(strlen@a+1)^0,w,c
  2801  000BD8  5804               	subwfb	(strlen@s+1)^0,w,c
  2802  000BDA  6E04               	movwf	(?_strlen+1)^0,c
  2803  000BDC  0012               	return		;funcret
  2804  000BDE                     __end_of_strlen:
  2805                           	opt callstack 0
  2806                           
  2807 ;; *************** function _fputs *****************
  2808 ;; Defined at:
  2809 ;;		line 8 in file "C:\Program Files (x86)\Microchip\xc8\v2.10\pic\sources\c99\common\nf_fputs.c"
  2810 ;; Parameters:    Size  Location     Type
  2811 ;;  s               2   13[COMRAM] PTR const unsigned char 
  2812 ;;		 -> dbuf(32), 
  2813 ;;  fp              2   15[COMRAM] PTR struct _IO_FILE
  2814 ;;		 -> NULL(0), 
  2815 ;; Auto vars:     Size  Location     Type
  2816 ;;  i               2   18[COMRAM] int 
  2817 ;;  c               1   17[COMRAM] unsigned char 
  2818 ;; Return value:  Size  Location     Type
  2819 ;;                  2   13[COMRAM] int 
  2820 ;; Registers used:
  2821 ;;		wreg, fsr1l, fsr1h, fsr2l, fsr2h, status,2, status,0, cstack
  2822 ;; Tracked objects:
  2823 ;;		On entry : 0/0
  2824 ;;		On exit  : 0/0
  2825 ;;		Unchanged: 0/0
  2826 ;; Data sizes:     COMRAM   BANK0   BANK1   BANK2   BANK3   BANK4   BANK5   BANK6   BANK7   BANK8   BANK9  BANK10  BANK1
      +1  BANK12  BANK13  BANK14  BANK15
  2827 ;;      Params:         4       0       0       0       0       0       0       0       0       0       0       0       
      +0       0       0       0       0
  2828 ;;      Locals:         3       0       0       0       0       0       0       0       0       0       0       0       
      +0       0       0       0       0
  2829 ;;      Temps:          0       0       0       0       0       0       0       0       0       0       0       0       
      +0       0       0       0       0
  2830 ;;      Totals:         7       0       0       0       0       0       0       0       0       0       0       0       
      +0       0       0       0       0
  2831 ;;Total ram usage:        7 bytes
  2832 ;; Hardware stack levels used:    1
  2833 ;; Hardware stack levels required when called:    7
  2834 ;; This function calls:
  2835 ;;		_fputc
  2836 ;; This function is called by:
  2837 ;;		_pad
  2838 ;; This function uses a non-reentrant model
  2839 ;;
  2840                           
  2841                           	psect	text10
  2842  000AE6                     __ptext10:
  2843                           	opt callstack 0
  2844  000AE6                     _fputs:
  2845                           	opt callstack 18
  2846  000AE6  0E00               	movlw	0
  2847  000AE8  6E14               	movwf	(fputs@i+1)^0,c
  2848  000AEA  0E00               	movlw	0
  2849  000AEC  6E13               	movwf	fputs@i^0,c
  2850  000AEE  EF84  F005         	goto	l1827
  2851  000AF2                     l1823:
  2852  000AF2  C012  F005         	movff	fputs@c,fputc@c
  2853  000AF6  6A06               	clrf	(fputc@c+1)^0,c
  2854  000AF8  C010  F007         	movff	fputs@fp,fputc@fp
  2855  000AFC  C011  F008         	movff	fputs@fp+1,fputc@fp+1
  2856  000B00  ECC9  F004         	call	_fputc	;wreg free
  2857  000B04  4A13               	infsnz	fputs@i^0,f,c
  2858  000B06  2A14               	incf	(fputs@i+1)^0,f,c
  2859  000B08                     l1827:
  2860  000B08  5013               	movf	fputs@i^0,w,c
  2861  000B0A  240E               	addwf	fputs@s^0,w,c
  2862  000B0C  6ED9               	movwf	fsr2l,c
  2863  000B0E  5014               	movf	(fputs@i+1)^0,w,c
  2864  000B10  200F               	addwfc	(fputs@s+1)^0,w,c
  2865  000B12  6EDA               	movwf	fsr2h,c
  2866  000B14  50DF               	movf	indf2,w,c
  2867  000B16  6E12               	movwf	fputs@c^0,c
  2868  000B18  5012               	movf	fputs@c^0,w,c
  2869  000B1A  A4D8               	btfss	status,2,c
  2870  000B1C  EF92  F005         	goto	u611
  2871  000B20  EF94  F005         	goto	u610
  2872  000B24                     u611:
  2873  000B24  EF79  F005         	goto	l1823
  2874  000B28                     u610:
  2875  000B28  0012               	return		;funcret
  2876  000B2A                     __end_of_fputs:
  2877                           	opt callstack 0
  2878                           
  2879 ;; *************** function _fputc *****************
  2880 ;; Defined at:
  2881 ;;		line 8 in file "C:\Program Files (x86)\Microchip\xc8\v2.10\pic\sources\c99\common\nf_fputc.c"
  2882 ;; Parameters:    Size  Location     Type
  2883 ;;  c               2    4[COMRAM] int 
  2884 ;;  fp              2    6[COMRAM] PTR struct _IO_FILE
  2885 ;;		 -> NULL(0), 
  2886 ;; Auto vars:     Size  Location     Type
  2887 ;;		None
  2888 ;; Return value:  Size  Location     Type
  2889 ;;                  2    4[COMRAM] int 
  2890 ;; Registers used:
  2891 ;;		wreg, fsr1l, fsr1h, fsr2l, fsr2h, status,2, status,0, cstack
  2892 ;; Tracked objects:
  2893 ;;		On entry : 0/0
  2894 ;;		On exit  : 0/0
  2895 ;;		Unchanged: 0/0
  2896 ;; Data sizes:     COMRAM   BANK0   BANK1   BANK2   BANK3   BANK4   BANK5   BANK6   BANK7   BANK8   BANK9  BANK10  BANK1
      +1  BANK12  BANK13  BANK14  BANK15
  2897 ;;      Params:         4       0       0       0       0       0       0       0       0       0       0       0       
      +0       0       0       0       0
  2898 ;;      Locals:         0       0       0       0       0       0       0       0       0       0       0       0       
      +0       0       0       0       0
  2899 ;;      Temps:          5       0       0       0       0       0       0       0       0       0       0       0       
      +0       0       0       0       0
  2900 ;;      Totals:         9       0       0       0       0       0       0       0       0       0       0       0       
      +0       0       0       0       0
  2901 ;;Total ram usage:        9 bytes
  2902 ;; Hardware stack levels used:    1
  2903 ;; Hardware stack levels required when called:    6
  2904 ;; This function calls:
  2905 ;;		_putch
  2906 ;; This function is called by:
  2907 ;;		_pad
  2908 ;;		_vfpfcnvrt
  2909 ;;		_fputs
  2910 ;; This function uses a non-reentrant model
  2911 ;;
  2912                           
  2913                           	psect	text11
  2914  000992                     __ptext11:
  2915                           	opt callstack 0
  2916  000992                     _fputc:
  2917                           	opt callstack 18
  2918  000992  5007               	movf	fputc@fp^0,w,c
  2919  000994  1008               	iorwf	(fputc@fp+1)^0,w,c
  2920  000996  B4D8               	btfsc	status,2,c
  2921  000998  EFD0  F004         	goto	u571
  2922  00099C  EFD2  F004         	goto	u570
  2923  0009A0                     u571:
  2924  0009A0  EFDB  F004         	goto	l1811
  2925  0009A4                     u570:
  2926  0009A4  5007               	movf	fputc@fp^0,w,c
  2927  0009A6  1008               	iorwf	(fputc@fp+1)^0,w,c
  2928  0009A8  A4D8               	btfss	status,2,c
  2929  0009AA  EFD9  F004         	goto	u581
  2930  0009AE  EFDB  F004         	goto	u580
  2931  0009B2                     u581:
  2932  0009B2  EFE0  F004         	goto	l1813
  2933  0009B6                     u580:
  2934  0009B6                     l1811:
  2935  0009B6  5005               	movf	fputc@c^0,w,c
  2936  0009B8  ECF5  F006         	call	_putch
  2937  0009BC  EF13  F005         	goto	l1206
  2938  0009C0                     l1813:
  2939  0009C0  EE20 F004          	lfsr	2,4
  2940  0009C4  5007               	movf	fputc@fp^0,w,c
  2941  0009C6  26D9               	addwf	fsr2l,f,c
  2942  0009C8  5008               	movf	(fputc@fp+1)^0,w,c
  2943  0009CA  22DA               	addwfc	fsr2h,f,c
  2944  0009CC  50DE               	movf	postinc2,w,c
  2945  0009CE  10DE               	iorwf	postinc2,w,c
  2946  0009D0  B4D8               	btfsc	status,2,c
  2947  0009D2  EFED  F004         	goto	u591
  2948  0009D6  EFEF  F004         	goto	u590
  2949  0009DA                     u591:
  2950  0009DA  EF0A  F005         	goto	l1817
  2951  0009DE                     u590:
  2952  0009DE  EE20 F004          	lfsr	2,4
  2953  0009E2  5007               	movf	fputc@fp^0,w,c
  2954  0009E4  26D9               	addwf	fsr2l,f,c
  2955  0009E6  5008               	movf	(fputc@fp+1)^0,w,c
  2956  0009E8  22DA               	addwfc	fsr2h,f,c
  2957  0009EA  EE10 F002          	lfsr	1,2
  2958  0009EE  5007               	movf	fputc@fp^0,w,c
  2959  0009F0  26E1               	addwf	fsr1l,f,c
  2960  0009F2  5008               	movf	(fputc@fp+1)^0,w,c
  2961  0009F4  22E2               	addwfc	fsr1h,f,c
  2962  0009F6  50DE               	movf	postinc2,w,c
  2963  0009F8  5CE6               	subwf	postinc1,w,c
  2964  0009FA  50E6               	movf	postinc1,w,c
  2965  0009FC  0A80               	xorlw	128
  2966  0009FE  6E0D               	movwf	(??_fputc+4)^0,c
  2967  000A00  50DE               	movf	postinc2,w,c
  2968  000A02  0A80               	xorlw	128
  2969  000A04  580D               	subwfb	(??_fputc+4)^0,w,c
  2970  000A06  B0D8               	btfsc	status,0,c
  2971  000A08  EF08  F005         	goto	u601
  2972  000A0C  EF0A  F005         	goto	u600
  2973  000A10                     u601:
  2974  000A10  EF13  F005         	goto	l1206
  2975  000A14                     u600:
  2976  000A14                     l1817:
  2977  000A14  EE20 F002          	lfsr	2,2
  2978  000A18  5007               	movf	fputc@fp^0,w,c
  2979  000A1A  26D9               	addwf	fsr2l,f,c
  2980  000A1C  5008               	movf	(fputc@fp+1)^0,w,c
  2981  000A1E  22DA               	addwfc	fsr2h,f,c
  2982  000A20  2ADE               	incf	postinc2,f,c
  2983  000A22  0E00               	movlw	0
  2984  000A24  22DD               	addwfc	postdec2,f,c
  2985  000A26                     l1206:
  2986  000A26  0012               	return		;funcret
  2987  000A28                     __end_of_fputc:
  2988                           	opt callstack 0
  2989                           
  2990 ;; *************** function _putch *****************
  2991 ;; Defined at:
  2992 ;;		line 146 in file "mcc_generated_files/eusart1.c"
  2993 ;; Parameters:    Size  Location     Type
  2994 ;;  txData          1    wreg     unsigned char 
  2995 ;; Auto vars:     Size  Location     Type
  2996 ;;  txData          1    3[COMRAM] unsigned char 
  2997 ;; Return value:  Size  Location     Type
  2998 ;;                  1    wreg      void 
  2999 ;; Registers used:
  3000 ;;		wreg, status,2, cstack
  3001 ;; Tracked objects:
  3002 ;;		On entry : 0/0
  3003 ;;		On exit  : 0/0
  3004 ;;		Unchanged: 0/0
  3005 ;; Data sizes:     COMRAM   BANK0   BANK1   BANK2   BANK3   BANK4   BANK5   BANK6   BANK7   BANK8   BANK9  BANK10  BANK1
      +1  BANK12  BANK13  BANK14  BANK15
  3006 ;;      Params:         0       0       0       0       0       0       0       0       0       0       0       0       
      +0       0       0       0       0
  3007 ;;      Locals:         1       0       0       0       0       0       0       0       0       0       0       0       
      +0       0       0       0       0
  3008 ;;      Temps:          0       0       0       0       0       0       0       0       0       0       0       0       
      +0       0       0       0       0
  3009 ;;      Totals:         1       0       0       0       0       0       0       0       0       0       0       0       
      +0       0       0       0       0
  3010 ;;Total ram usage:        1 bytes
  3011 ;; Hardware stack levels used:    1
  3012 ;; Hardware stack levels required when called:    5
  3013 ;; This function calls:
  3014 ;;		_EUSART1_Write
  3015 ;; This function is called by:
  3016 ;;		_fputc
  3017 ;; This function uses a non-reentrant model
  3018 ;;
  3019                           
  3020                           	psect	text12
  3021  000DEA                     __ptext12:
  3022                           	opt callstack 0
  3023  000DEA                     _putch:
  3024                           	opt callstack 18
  3025                           
  3026                           ;incstack = 0
  3027                           ;putch@txData stored from wreg
  3028  000DEA  6E04               	movwf	putch@txData^0,c
  3029  000DEC                     
  3030                           ;mcc_generated_files/eusart1.c: 146: void putch(char txData);mcc_generated_files/eusart1
      +                          .c: 147: {;mcc_generated_files/eusart1.c: 148:     EUSART1_Write(txData);
  3031  000DEC  5004               	movf	putch@txData^0,w,c
  3032  000DEE  ECCE  F006         	call	_EUSART1_Write
  3033  000DF2  0012               	return		;funcret
  3034  000DF4                     __end_of_putch:
  3035                           	opt callstack 0
  3036                           
  3037 ;; *************** function _EUSART1_Write *****************
  3038 ;; Defined at:
  3039 ;;		line 132 in file "mcc_generated_files/eusart1.c"
  3040 ;; Parameters:    Size  Location     Type
  3041 ;;  txData          1    wreg     unsigned char 
  3042 ;; Auto vars:     Size  Location     Type
  3043 ;;  txData          1    2[COMRAM] unsigned char 
  3044 ;; Return value:  Size  Location     Type
  3045 ;;                  1    wreg      void 
  3046 ;; Registers used:
  3047 ;;		wreg
  3048 ;; Tracked objects:
  3049 ;;		On entry : 0/0
  3050 ;;		On exit  : 0/0
  3051 ;;		Unchanged: 0/0
  3052 ;; Data sizes:     COMRAM   BANK0   BANK1   BANK2   BANK3   BANK4   BANK5   BANK6   BANK7   BANK8   BANK9  BANK10  BANK1
      +1  BANK12  BANK13  BANK14  BANK15
  3053 ;;      Params:         0       0       0       0       0       0       0       0       0       0       0       0       
      +0       0       0       0       0
  3054 ;;      Locals:         1       0       0       0       0       0       0       0       0       0       0       0       
      +0       0       0       0       0
  3055 ;;      Temps:          0       0       0       0       0       0       0       0       0       0       0       0       
      +0       0       0       0       0
  3056 ;;      Totals:         1       0       0       0       0       0       0       0       0       0       0       0       
      +0       0       0       0       0
  3057 ;;Total ram usage:        1 bytes
  3058 ;; Hardware stack levels used:    1
  3059 ;; Hardware stack levels required when called:    4
  3060 ;; This function calls:
  3061 ;;		Nothing
  3062 ;; This function is called by:
  3063 ;;		_putch
  3064 ;; This function uses a non-reentrant model
  3065 ;;
  3066                           
  3067                           	psect	text13
  3068  000D9C                     __ptext13:
  3069                           	opt callstack 0
  3070  000D9C                     _EUSART1_Write:
  3071                           	opt callstack 18
  3072                           
  3073                           ;incstack = 0
  3074                           ;EUSART1_Write@txData stored from wreg
  3075  000D9C  6E03               	movwf	EUSART1_Write@txData^0,c
  3076  000D9E                     l139:
  3077                           
  3078                           ;mcc_generated_files/eusart1.c: 134:     while(0 == PIR1bits.TX1IF)
  3079  000D9E  A89E               	btfss	158,4,c	;volatile
  3080  000DA0  EFD4  F006         	goto	u561
  3081  000DA4  EFD6  F006         	goto	u560
  3082  000DA8                     u561:
  3083  000DA8  EFCF  F006         	goto	l139
  3084  000DAC                     u560:
  3085  000DAC                     
  3086                           ;mcc_generated_files/eusart1.c: 138:     TXREG1 = txData;
  3087  000DAC  C003  FFAD         	movff	EUSART1_Write@txData,4013	;volatile
  3088  000DB0  0012               	return		;funcret
  3089  000DB2                     __end_of_EUSART1_Write:
  3090                           	opt callstack 0
  3091                           
  3092 ;; *************** function _TMR0_WriteTimer *****************
  3093 ;; Defined at:
  3094 ;;		line 115 in file "mcc_generated_files/tmr0.c"
  3095 ;; Parameters:    Size  Location     Type
  3096 ;;  timerVal        2    2[COMRAM] unsigned short 
  3097 ;; Auto vars:     Size  Location     Type
  3098 ;;		None
  3099 ;; Return value:  Size  Location     Type
  3100 ;;                  1    wreg      void 
  3101 ;; Registers used:
  3102 ;;		wreg, status,2
  3103 ;; Tracked objects:
  3104 ;;		On entry : 0/0
  3105 ;;		On exit  : 0/0
  3106 ;;		Unchanged: 0/0
  3107 ;; Data sizes:     COMRAM   BANK0   BANK1   BANK2   BANK3   BANK4   BANK5   BANK6   BANK7   BANK8   BANK9  BANK10  BANK1
      +1  BANK12  BANK13  BANK14  BANK15
  3108 ;;      Params:         2       0       0       0       0       0       0       0       0       0       0       0       
      +0       0       0       0       0
  3109 ;;      Locals:         0       0       0       0       0       0       0       0       0       0       0       0       
      +0       0       0       0       0
  3110 ;;      Temps:          0       0       0       0       0       0       0       0       0       0       0       0       
      +0       0       0       0       0
  3111 ;;      Totals:         2       0       0       0       0       0       0       0       0       0       0       0       
      +0       0       0       0       0
  3112 ;;Total ram usage:        2 bytes
  3113 ;; Hardware stack levels used:    1
  3114 ;; Hardware stack levels required when called:    4
  3115 ;; This function calls:
  3116 ;;		Nothing
  3117 ;; This function is called by:
  3118 ;;		_main
  3119 ;; This function uses a non-reentrant model
  3120 ;;
  3121                           
  3122                           	psect	text14
  3123  000DF4                     __ptext14:
  3124                           	opt callstack 0
  3125  000DF4                     _TMR0_WriteTimer:
  3126                           	opt callstack 26
  3127  000DF4                     
  3128                           ;mcc_generated_files/tmr0.c: 115: void TMR0_WriteTimer(uint16_t timerVal);mcc_generated_
      +                          files/tmr0.c: 116: {;mcc_generated_files/tmr0.c: 118:     TMR0H = timerVal >> 8;
  3129  000DF4  5004               	movf	(TMR0_WriteTimer@timerVal+1)^0,w,c
  3130  000DF6  6ED7               	movwf	215,c	;volatile
  3131  000DF8                     
  3132                           ;mcc_generated_files/tmr0.c: 119:     TMR0L = (uint8_t) timerVal;
  3133  000DF8  C003  FFD6         	movff	TMR0_WriteTimer@timerVal,4054	;volatile
  3134  000DFC  0012               	return		;funcret
  3135  000DFE                     __end_of_TMR0_WriteTimer:
  3136                           	opt callstack 0
  3137                           
  3138 ;; *************** function _SYSTEM_Initialize *****************
  3139 ;; Defined at:
  3140 ;;		line 50 in file "mcc_generated_files/mcc.c"
  3141 ;; Parameters:    Size  Location     Type
  3142 ;;		None
  3143 ;; Auto vars:     Size  Location     Type
  3144 ;;		None
  3145 ;; Return value:  Size  Location     Type
  3146 ;;                  1    wreg      void 
  3147 ;; Registers used:
  3148 ;;		wreg, status,2, status,0, cstack
  3149 ;; Tracked objects:
  3150 ;;		On entry : 0/0
  3151 ;;		On exit  : 0/0
  3152 ;;		Unchanged: 0/0
  3153 ;; Data sizes:     COMRAM   BANK0   BANK1   BANK2   BANK3   BANK4   BANK5   BANK6   BANK7   BANK8   BANK9  BANK10  BANK1
      +1  BANK12  BANK13  BANK14  BANK15
  3154 ;;      Params:         0       0       0       0       0       0       0       0       0       0       0       0       
      +0       0       0       0       0
  3155 ;;      Locals:         0       0       0       0       0       0       0       0       0       0       0       0       
      +0       0       0       0       0
  3156 ;;      Temps:          0       0       0       0       0       0       0       0       0       0       0       0       
      +0       0       0       0       0
  3157 ;;      Totals:         0       0       0       0       0       0       0       0       0       0       0       0       
      +0       0       0       0       0
  3158 ;;Total ram usage:        0 bytes
  3159 ;; Hardware stack levels used:    1
  3160 ;; Hardware stack levels required when called:    6
  3161 ;; This function calls:
  3162 ;;		_EPWM1_Initialize
  3163 ;;		_EPWM2_Initialize
  3164 ;;		_EUSART1_Initialize
  3165 ;;		_INTERRUPT_Initialize
  3166 ;;		_OSCILLATOR_Initialize
  3167 ;;		_PIN_MANAGER_Initialize
  3168 ;;		_TMR0_Initialize
  3169 ;;		_TMR1_Initialize
  3170 ;;		_TMR2_Initialize
  3171 ;; This function is called by:
  3172 ;;		_main
  3173 ;; This function uses a non-reentrant model
  3174 ;;
  3175                           
  3176                           	psect	text15
  3177  000CBE                     __ptext15:
  3178                           	opt callstack 0
  3179  000CBE                     _SYSTEM_Initialize:
  3180                           	opt callstack 24
  3181  000CBE                     
  3182                           ;mcc_generated_files/mcc.c: 53:     INTERRUPT_Initialize();
  3183  000CBE  EC13  F007         	call	_INTERRUPT_Initialize	;wreg free
  3184  000CC2                     
  3185                           ;mcc_generated_files/mcc.c: 54:     PIN_MANAGER_Initialize();
  3186  000CC2  ECB5  F005         	call	_PIN_MANAGER_Initialize	;wreg free
  3187  000CC6                     
  3188                           ;mcc_generated_files/mcc.c: 55:     OSCILLATOR_Initialize();
  3189  000CC6  ECB3  F006         	call	_OSCILLATOR_Initialize	;wreg free
  3190  000CCA                     
  3191                           ;mcc_generated_files/mcc.c: 56:     EPWM2_Initialize();
  3192  000CCA  EC85  F006         	call	_EPWM2_Initialize	;wreg free
  3193  000CCE                     
  3194                           ;mcc_generated_files/mcc.c: 57:     EPWM1_Initialize();
  3195  000CCE  EC95  F006         	call	_EPWM1_Initialize	;wreg free
  3196  000CD2                     
  3197                           ;mcc_generated_files/mcc.c: 58:     TMR2_Initialize();
  3198  000CD2  ECEE  F006         	call	_TMR2_Initialize	;wreg free
  3199  000CD6                     
  3200                           ;mcc_generated_files/mcc.c: 59:     TMR1_Initialize();
  3201  000CD6  ECA5  F006         	call	_TMR1_Initialize	;wreg free
  3202  000CDA                     
  3203                           ;mcc_generated_files/mcc.c: 60:     TMR0_Initialize();
  3204  000CDA  EC72  F006         	call	_TMR0_Initialize	;wreg free
  3205  000CDE                     
  3206                           ;mcc_generated_files/mcc.c: 61:     EUSART1_Initialize();
  3207  000CDE  EC95  F005         	call	_EUSART1_Initialize	;wreg free
  3208  000CE2  0012               	return		;funcret
  3209  000CE4                     __end_of_SYSTEM_Initialize:
  3210                           	opt callstack 0
  3211                           
  3212 ;; *************** function _TMR2_Initialize *****************
  3213 ;; Defined at:
  3214 ;;		line 62 in file "mcc_generated_files/tmr2.c"
  3215 ;; Parameters:    Size  Location     Type
  3216 ;;		None
  3217 ;; Auto vars:     Size  Location     Type
  3218 ;;		None
  3219 ;; Return value:  Size  Location     Type
  3220 ;;                  1    wreg      void 
  3221 ;; Registers used:
  3222 ;;		wreg, status,2
  3223 ;; Tracked objects:
  3224 ;;		On entry : 0/0
  3225 ;;		On exit  : 0/0
  3226 ;;		Unchanged: 0/0
  3227 ;; Data sizes:     COMRAM   BANK0   BANK1   BANK2   BANK3   BANK4   BANK5   BANK6   BANK7   BANK8   BANK9  BANK10  BANK1
      +1  BANK12  BANK13  BANK14  BANK15
  3228 ;;      Params:         0       0       0       0       0       0       0       0       0       0       0       0       
      +0       0       0       0       0
  3229 ;;      Locals:         0       0       0       0       0       0       0       0       0       0       0       0       
      +0       0       0       0       0
  3230 ;;      Temps:          0       0       0       0       0       0       0       0       0       0       0       0       
      +0       0       0       0       0
  3231 ;;      Totals:         0       0       0       0       0       0       0       0       0       0       0       0       
      +0       0       0       0       0
  3232 ;;Total ram usage:        0 bytes
  3233 ;; Hardware stack levels used:    1
  3234 ;; Hardware stack levels required when called:    4
  3235 ;; This function calls:
  3236 ;;		Nothing
  3237 ;; This function is called by:
  3238 ;;		_SYSTEM_Initialize
  3239 ;; This function uses a non-reentrant model
  3240 ;;
  3241                           
  3242                           	psect	text16
  3243  000DDC                     __ptext16:
  3244                           	opt callstack 0
  3245  000DDC                     _TMR2_Initialize:
  3246                           	opt callstack 25
  3247  000DDC                     
  3248                           ;mcc_generated_files/tmr2.c: 67:     PR2 = 0xFF;
  3249  000DDC  68BB               	setf	187,c	;volatile
  3250  000DDE                     
  3251                           ;mcc_generated_files/tmr2.c: 70:     TMR2 = 0x00;
  3252  000DDE  0E00               	movlw	0
  3253  000DE0  6EBC               	movwf	188,c	;volatile
  3254  000DE2                     
  3255                           ;mcc_generated_files/tmr2.c: 73:     PIR1bits.TMR2IF = 0;
  3256  000DE2  929E               	bcf	158,1,c	;volatile
  3257                           
  3258                           ;mcc_generated_files/tmr2.c: 76:     T2CON = 0x04;
  3259  000DE4  0E04               	movlw	4
  3260  000DE6  6EBA               	movwf	186,c	;volatile
  3261  000DE8  0012               	return		;funcret
  3262  000DEA                     __end_of_TMR2_Initialize:
  3263                           	opt callstack 0
  3264                           
  3265 ;; *************** function _TMR1_Initialize *****************
  3266 ;; Defined at:
  3267 ;;		line 63 in file "mcc_generated_files/tmr1.c"
  3268 ;; Parameters:    Size  Location     Type
  3269 ;;		None
  3270 ;; Auto vars:     Size  Location     Type
  3271 ;;		None
  3272 ;; Return value:  Size  Location     Type
  3273 ;;                  1    wreg      void 
  3274 ;; Registers used:
  3275 ;;		wreg, status,2
  3276 ;; Tracked objects:
  3277 ;;		On entry : 0/0
  3278 ;;		On exit  : 0/0
  3279 ;;		Unchanged: 0/0
  3280 ;; Data sizes:     COMRAM   BANK0   BANK1   BANK2   BANK3   BANK4   BANK5   BANK6   BANK7   BANK8   BANK9  BANK10  BANK1
      +1  BANK12  BANK13  BANK14  BANK15
  3281 ;;      Params:         0       0       0       0       0       0       0       0       0       0       0       0       
      +0       0       0       0       0
  3282 ;;      Locals:         0       0       0       0       0       0       0       0       0       0       0       0       
      +0       0       0       0       0
  3283 ;;      Temps:          0       0       0       0       0       0       0       0       0       0       0       0       
      +0       0       0       0       0
  3284 ;;      Totals:         0       0       0       0       0       0       0       0       0       0       0       0       
      +0       0       0       0       0
  3285 ;;Total ram usage:        0 bytes
  3286 ;; Hardware stack levels used:    1
  3287 ;; Hardware stack levels required when called:    4
  3288 ;; This function calls:
  3289 ;;		Nothing
  3290 ;; This function is called by:
  3291 ;;		_SYSTEM_Initialize
  3292 ;; This function uses a non-reentrant model
  3293 ;;
  3294                           
  3295                           	psect	text17
  3296  000D4A                     __ptext17:
  3297                           	opt callstack 0
  3298  000D4A                     _TMR1_Initialize:
  3299                           	opt callstack 25
  3300  000D4A                     
  3301                           ;mcc_generated_files/tmr1.c: 68:     T1GCON = 0x00;
  3302  000D4A  0E00               	movlw	0
  3303  000D4C  6ECC               	movwf	204,c	;volatile
  3304                           
  3305                           ;mcc_generated_files/tmr1.c: 71:     TMR1H = 0xFD;
  3306  000D4E  0EFD               	movlw	253
  3307  000D50  6ECF               	movwf	207,c	;volatile
  3308                           
  3309                           ;mcc_generated_files/tmr1.c: 74:     TMR1L = 0x80;
  3310  000D52  0E80               	movlw	128
  3311  000D54  6ECE               	movwf	206,c	;volatile
  3312  000D56                     
  3313                           ;mcc_generated_files/tmr1.c: 77:     timer1ReloadVal=TMR1;
  3314  000D56  CFCE F072          	movff	4046,_timer1ReloadVal	;volatile
  3315  000D5A  CFCF F073          	movff	4047,_timer1ReloadVal+1	;volatile
  3316  000D5E                     
  3317                           ;mcc_generated_files/tmr1.c: 80:     PIR1bits.TMR1IF = 0;
  3318  000D5E  909E               	bcf	158,0,c	;volatile
  3319                           
  3320                           ;mcc_generated_files/tmr1.c: 83:     T1CON = 0x41;
  3321  000D60  0E41               	movlw	65
  3322  000D62  6ECD               	movwf	205,c	;volatile
  3323  000D64  0012               	return		;funcret
  3324  000D66                     __end_of_TMR1_Initialize:
  3325                           	opt callstack 0
  3326                           
  3327 ;; *************** function _TMR0_Initialize *****************
  3328 ;; Defined at:
  3329 ;;		line 66 in file "mcc_generated_files/tmr0.c"
  3330 ;; Parameters:    Size  Location     Type
  3331 ;;		None
  3332 ;; Auto vars:     Size  Location     Type
  3333 ;;		None
  3334 ;; Return value:  Size  Location     Type
  3335 ;;                  1    wreg      void 
  3336 ;; Registers used:
  3337 ;;		wreg, status,2, status,0
  3338 ;; Tracked objects:
  3339 ;;		On entry : 0/0
  3340 ;;		On exit  : 0/0
  3341 ;;		Unchanged: 0/0
  3342 ;; Data sizes:     COMRAM   BANK0   BANK1   BANK2   BANK3   BANK4   BANK5   BANK6   BANK7   BANK8   BANK9  BANK10  BANK1
      +1  BANK12  BANK13  BANK14  BANK15
  3343 ;;      Params:         0       0       0       0       0       0       0       0       0       0       0       0       
      +0       0       0       0       0
  3344 ;;      Locals:         0       0       0       0       0       0       0       0       0       0       0       0       
      +0       0       0       0       0
  3345 ;;      Temps:          2       0       0       0       0       0       0       0       0       0       0       0       
      +0       0       0       0       0
  3346 ;;      Totals:         2       0       0       0       0       0       0       0       0       0       0       0       
      +0       0       0       0       0
  3347 ;;Total ram usage:        2 bytes
  3348 ;; Hardware stack levels used:    1
  3349 ;; Hardware stack levels required when called:    4
  3350 ;; This function calls:
  3351 ;;		Nothing
  3352 ;; This function is called by:
  3353 ;;		_SYSTEM_Initialize
  3354 ;; This function uses a non-reentrant model
  3355 ;;
  3356                           
  3357                           	psect	text18
  3358  000CE4                     __ptext18:
  3359                           	opt callstack 0
  3360  000CE4                     _TMR0_Initialize:
  3361                           	opt callstack 25
  3362  000CE4                     
  3363                           ;mcc_generated_files/tmr0.c: 71:     T0CONbits.T08BIT = 0;
  3364  000CE4  9CD5               	bcf	213,6,c	;volatile
  3365                           
  3366                           ;mcc_generated_files/tmr0.c: 74:     TMR0H = 0xFF;
  3367  000CE6  68D7               	setf	215,c	;volatile
  3368  000CE8                     
  3369                           ;mcc_generated_files/tmr0.c: 77:     TMR0L = 0xF5;
  3370  000CE8  0EF5               	movlw	245
  3371  000CEA  6ED6               	movwf	214,c	;volatile
  3372  000CEC                     
  3373                           ;mcc_generated_files/tmr0.c: 81:     timer0ReloadVal = (uint16_t)((TMR0H << 8) | TMR0L);
  3374  000CEC  50D6               	movf	214,w,c	;volatile
  3375  000CEE  CFD7 F003          	movff	4055,??_TMR0_Initialize	;volatile
  3376  000CF2  6A04               	clrf	(??_TMR0_Initialize+1)^0,c
  3377  000CF4  C003  F004         	movff	??_TMR0_Initialize,??_TMR0_Initialize+1
  3378  000CF8  6A03               	clrf	??_TMR0_Initialize^0,c
  3379  000CFA  1003               	iorwf	??_TMR0_Initialize^0,w,c
  3380  000CFC  6E5B               	movwf	_timer0ReloadVal^0,c	;volatile
  3381  000CFE  5004               	movf	(??_TMR0_Initialize+1)^0,w,c
  3382  000D00  6E5C               	movwf	(_timer0ReloadVal+1)^0,c	;volatile
  3383  000D02                     
  3384                           ;mcc_generated_files/tmr0.c: 84:     INTCONbits.TMR0IF = 0;
  3385  000D02  94F2               	bcf	242,2,c	;volatile
  3386  000D04                     
  3387                           ;mcc_generated_files/tmr0.c: 87:     T0CON = 0x93;
  3388  000D04  0E93               	movlw	147
  3389  000D06  6ED5               	movwf	213,c	;volatile
  3390  000D08  0012               	return		;funcret
  3391  000D0A                     __end_of_TMR0_Initialize:
  3392                           	opt callstack 0
  3393                           
  3394 ;; *************** function _PIN_MANAGER_Initialize *****************
  3395 ;; Defined at:
  3396 ;;		line 57 in file "mcc_generated_files/pin_manager.c"
  3397 ;; Parameters:    Size  Location     Type
  3398 ;;		None
  3399 ;; Auto vars:     Size  Location     Type
  3400 ;;		None
  3401 ;; Return value:  Size  Location     Type
  3402 ;;                  1    wreg      void 
  3403 ;; Registers used:
  3404 ;;		wreg, status,2, status,0, cstack
  3405 ;; Tracked objects:
  3406 ;;		On entry : 0/0
  3407 ;;		On exit  : 0/0
  3408 ;;		Unchanged: 0/0
  3409 ;; Data sizes:     COMRAM   BANK0   BANK1   BANK2   BANK3   BANK4   BANK5   BANK6   BANK7   BANK8   BANK9  BANK10  BANK1
      +1  BANK12  BANK13  BANK14  BANK15
  3410 ;;      Params:         0       0       0       0       0       0       0       0       0       0       0       0       
      +0       0       0       0       0
  3411 ;;      Locals:         0       0       0       0       0       0       0       0       0       0       0       0       
      +0       0       0       0       0
  3412 ;;      Temps:          0       0       0       0       0       0       0       0       0       0       0       0       
      +0       0       0       0       0
  3413 ;;      Totals:         0       0       0       0       0       0       0       0       0       0       0       0       
      +0       0       0       0       0
  3414 ;;Total ram usage:        0 bytes
  3415 ;; Hardware stack levels used:    1
  3416 ;; Hardware stack levels required when called:    5
  3417 ;; This function calls:
  3418 ;;		_IOCB4_SetInterruptHandler
  3419 ;; This function is called by:
  3420 ;;		_SYSTEM_Initialize
  3421 ;; This function uses a non-reentrant model
  3422 ;;
  3423                           
  3424                           	psect	text19
  3425  000B6A                     __ptext19:
  3426                           	opt callstack 0
  3427  000B6A                     _PIN_MANAGER_Initialize:
  3428                           	opt callstack 24
  3429  000B6A                     
  3430                           ;mcc_generated_files/pin_manager.c: 62:     LATA = 0x00;
  3431  000B6A  0E00               	movlw	0
  3432  000B6C  6E89               	movwf	137,c	;volatile
  3433                           
  3434                           ;mcc_generated_files/pin_manager.c: 63:     LATB = 0x00;
  3435  000B6E  0E00               	movlw	0
  3436  000B70  6E8A               	movwf	138,c	;volatile
  3437                           
  3438                           ;mcc_generated_files/pin_manager.c: 64:     LATC = 0x00;
  3439  000B72  0E00               	movlw	0
  3440  000B74  6E8B               	movwf	139,c	;volatile
  3441                           
  3442                           ;mcc_generated_files/pin_manager.c: 69:     TRISA = 0xFC;
  3443  000B76  0EFC               	movlw	252
  3444  000B78  6E92               	movwf	146,c	;volatile
  3445                           
  3446                           ;mcc_generated_files/pin_manager.c: 70:     TRISB = 0x1B;
  3447  000B7A  0E1B               	movlw	27
  3448  000B7C  6E93               	movwf	147,c	;volatile
  3449                           
  3450                           ;mcc_generated_files/pin_manager.c: 71:     TRISC = 0xB9;
  3451  000B7E  0EB9               	movlw	185
  3452  000B80  6E94               	movwf	148,c	;volatile
  3453                           
  3454                           ;mcc_generated_files/pin_manager.c: 76:     ANSELC = 0x3C;
  3455  000B82  0E3C               	movlw	60
  3456  000B84  010F               	movlb	15	; () banked
  3457  000B86  6F3A               	movwf	58,b	;volatile
  3458                           
  3459                           ;mcc_generated_files/pin_manager.c: 77:     ANSELB = 0x2F;
  3460  000B88  0E2F               	movlw	47
  3461  000B8A  6F39               	movwf	57,b	;volatile
  3462                           
  3463                           ;mcc_generated_files/pin_manager.c: 78:     ANSELA = 0x2F;
  3464  000B8C  0E2F               	movlw	47
  3465  000B8E  6F38               	movwf	56,b	;volatile
  3466                           
  3467                           ;mcc_generated_files/pin_manager.c: 83:     WPUB = 0x00;
  3468  000B90  0E00               	movlw	0
  3469  000B92  6E61               	movwf	97,c	;volatile
  3470  000B94                     
  3471                           ; BSR set to: 15
  3472                           ;mcc_generated_files/pin_manager.c: 84:     INTCON2bits.nRBPU = 1;
  3473  000B94  8EF1               	bsf	241,7,c	;volatile
  3474  000B96                     
  3475                           ; BSR set to: 15
  3476                           ;mcc_generated_files/pin_manager.c: 92:     IOCBbits.IOCB4 = 1;
  3477  000B96  8862               	bsf	98,4,c	;volatile
  3478  000B98                     
  3479                           ; BSR set to: 15
  3480                           ;mcc_generated_files/pin_manager.c: 97:     IOCB4_SetInterruptHandler(IOCB4_DefaultInter
      +                          ruptHandler);
  3481  000B98  0E2A               	movlw	low _IOCB4_DefaultInterruptHandler
  3482  000B9A  6E03               	movwf	IOCB4_SetInterruptHandler@InterruptHandler^0,c
  3483  000B9C  0E0E               	movlw	high _IOCB4_DefaultInterruptHandler
  3484  000B9E  6E04               	movwf	(IOCB4_SetInterruptHandler@InterruptHandler+1)^0,c
  3485  000BA0  ECFF  F006         	call	_IOCB4_SetInterruptHandler	;wreg free
  3486  000BA4                     
  3487                           ;mcc_generated_files/pin_manager.c: 100:     INTCONbits.RBIE = 1;
  3488  000BA4  86F2               	bsf	242,3,c	;volatile
  3489  000BA6  0012               	return		;funcret
  3490  000BA8                     __end_of_PIN_MANAGER_Initialize:
  3491                           	opt callstack 0
  3492                           
  3493 ;; *************** function _IOCB4_SetInterruptHandler *****************
  3494 ;; Defined at:
  3495 ;;		line 132 in file "mcc_generated_files/pin_manager.c"
  3496 ;; Parameters:    Size  Location     Type
  3497 ;;  InterruptHan    2    2[COMRAM] PTR FTN()void 
  3498 ;;		 -> IOCB4_DefaultInterruptHandler(1), 
  3499 ;; Auto vars:     Size  Location     Type
  3500 ;;		None
  3501 ;; Return value:  Size  Location     Type
  3502 ;;                  1    wreg      void 
  3503 ;; Registers used:
  3504 ;;		wreg, status,2, status,0
  3505 ;; Tracked objects:
  3506 ;;		On entry : 0/0
  3507 ;;		On exit  : 0/0
  3508 ;;		Unchanged: 0/0
  3509 ;; Data sizes:     COMRAM   BANK0   BANK1   BANK2   BANK3   BANK4   BANK5   BANK6   BANK7   BANK8   BANK9  BANK10  BANK1
      +1  BANK12  BANK13  BANK14  BANK15
  3510 ;;      Params:         2       0       0       0       0       0       0       0       0       0       0       0       
      +0       0       0       0       0
  3511 ;;      Locals:         0       0       0       0       0       0       0       0       0       0       0       0       
      +0       0       0       0       0
  3512 ;;      Temps:          0       0       0       0       0       0       0       0       0       0       0       0       
      +0       0       0       0       0
  3513 ;;      Totals:         2       0       0       0       0       0       0       0       0       0       0       0       
      +0       0       0       0       0
  3514 ;;Total ram usage:        2 bytes
  3515 ;; Hardware stack levels used:    1
  3516 ;; Hardware stack levels required when called:    4
  3517 ;; This function calls:
  3518 ;;		Nothing
  3519 ;; This function is called by:
  3520 ;;		_PIN_MANAGER_Initialize
  3521 ;; This function uses a non-reentrant model
  3522 ;;
  3523                           
  3524                           	psect	text20
  3525  000DFE                     __ptext20:
  3526                           	opt callstack 0
  3527  000DFE                     _IOCB4_SetInterruptHandler:
  3528                           	opt callstack 24
  3529  000DFE                     
  3530                           ;mcc_generated_files/pin_manager.c: 133:     IOCB4_InterruptHandler = InterruptHandler;
  3531  000DFE  C003  F0AA         	movff	IOCB4_SetInterruptHandler@InterruptHandler,_IOCB4_InterruptHandler
  3532  000E02  C004  F0AB         	movff	IOCB4_SetInterruptHandler@InterruptHandler+1,_IOCB4_InterruptHandler+1
  3533  000E06  0012               	return		;funcret
  3534  000E08                     __end_of_IOCB4_SetInterruptHandler:
  3535                           	opt callstack 0
  3536                           
  3537 ;; *************** function _OSCILLATOR_Initialize *****************
  3538 ;; Defined at:
  3539 ;;		line 64 in file "mcc_generated_files/mcc.c"
  3540 ;; Parameters:    Size  Location     Type
  3541 ;;		None
  3542 ;; Auto vars:     Size  Location     Type
  3543 ;;		None
  3544 ;; Return value:  Size  Location     Type
  3545 ;;                  1    wreg      void 
  3546 ;; Registers used:
  3547 ;;		wreg, status,2
  3548 ;; Tracked objects:
  3549 ;;		On entry : 0/0
  3550 ;;		On exit  : 0/0
  3551 ;;		Unchanged: 0/0
  3552 ;; Data sizes:     COMRAM   BANK0   BANK1   BANK2   BANK3   BANK4   BANK5   BANK6   BANK7   BANK8   BANK9  BANK10  BANK1
      +1  BANK12  BANK13  BANK14  BANK15
  3553 ;;      Params:         0       0       0       0       0       0       0       0       0       0       0       0       
      +0       0       0       0       0
  3554 ;;      Locals:         0       0       0       0       0       0       0       0       0       0       0       0       
      +0       0       0       0       0
  3555 ;;      Temps:          0       0       0       0       0       0       0       0       0       0       0       0       
      +0       0       0       0       0
  3556 ;;      Totals:         0       0       0       0       0       0       0       0       0       0       0       0       
      +0       0       0       0       0
  3557 ;;Total ram usage:        0 bytes
  3558 ;; Hardware stack levels used:    1
  3559 ;; Hardware stack levels required when called:    4
  3560 ;; This function calls:
  3561 ;;		Nothing
  3562 ;; This function is called by:
  3563 ;;		_SYSTEM_Initialize
  3564 ;; This function uses a non-reentrant model
  3565 ;;
  3566                           
  3567                           	psect	text21
  3568  000D66                     __ptext21:
  3569                           	opt callstack 0
  3570  000D66                     _OSCILLATOR_Initialize:
  3571                           	opt callstack 25
  3572  000D66                     
  3573                           ;mcc_generated_files/mcc.c: 67:     OSCCON = 0x70;
  3574  000D66  0E70               	movlw	112
  3575  000D68  6ED3               	movwf	211,c	;volatile
  3576                           
  3577                           ;mcc_generated_files/mcc.c: 69:     OSCCON2 = 0x04;
  3578  000D6A  0E04               	movlw	4
  3579  000D6C  6ED2               	movwf	210,c	;volatile
  3580                           
  3581                           ;mcc_generated_files/mcc.c: 71:     OSCTUNE = 0x40;
  3582  000D6E  0E40               	movlw	64
  3583  000D70  6E9B               	movwf	155,c	;volatile
  3584  000D72                     l198:
  3585                           
  3586                           ;mcc_generated_files/mcc.c: 73:     while(PLLRDY == 0)
  3587  000D72  AED2               	btfss	4050,7,c	;volatile
  3588  000D74  EFBE  F006         	goto	u861
  3589  000D78  EFC0  F006         	goto	u860
  3590  000D7C                     u861:
  3591  000D7C  EFB9  F006         	goto	l198
  3592  000D80                     u860:
  3593  000D80  0012               	return		;funcret
  3594  000D82                     __end_of_OSCILLATOR_Initialize:
  3595                           	opt callstack 0
  3596                           
  3597 ;; *************** function _INTERRUPT_Initialize *****************
  3598 ;; Defined at:
  3599 ;;		line 52 in file "mcc_generated_files/interrupt_manager.c"
  3600 ;; Parameters:    Size  Location     Type
  3601 ;;		None
  3602 ;; Auto vars:     Size  Location     Type
  3603 ;;		None
  3604 ;; Return value:  Size  Location     Type
  3605 ;;                  1    wreg      void 
  3606 ;; Registers used:
  3607 ;;		None
  3608 ;; Tracked objects:
  3609 ;;		On entry : 0/0
  3610 ;;		On exit  : 0/0
  3611 ;;		Unchanged: 0/0
  3612 ;; Data sizes:     COMRAM   BANK0   BANK1   BANK2   BANK3   BANK4   BANK5   BANK6   BANK7   BANK8   BANK9  BANK10  BANK1
      +1  BANK12  BANK13  BANK14  BANK15
  3613 ;;      Params:         0       0       0       0       0       0       0       0       0       0       0       0       
      +0       0       0       0       0
  3614 ;;      Locals:         0       0       0       0       0       0       0       0       0       0       0       0       
      +0       0       0       0       0
  3615 ;;      Temps:          0       0       0       0       0       0       0       0       0       0       0       0       
      +0       0       0       0       0
  3616 ;;      Totals:         0       0       0       0       0       0       0       0       0       0       0       0       
      +0       0       0       0       0
  3617 ;;Total ram usage:        0 bytes
  3618 ;; Hardware stack levels used:    1
  3619 ;; Hardware stack levels required when called:    4
  3620 ;; This function calls:
  3621 ;;		Nothing
  3622 ;; This function is called by:
  3623 ;;		_SYSTEM_Initialize
  3624 ;; This function uses a non-reentrant model
  3625 ;;
  3626                           
  3627                           	psect	text22
  3628  000E26                     __ptext22:
  3629                           	opt callstack 0
  3630  000E26                     _INTERRUPT_Initialize:
  3631                           	opt callstack 25
  3632  000E26                     
  3633                           ;mcc_generated_files/interrupt_manager.c: 55:     RCONbits.IPEN = 0;
  3634  000E26  9ED0               	bcf	208,7,c	;volatile
  3635  000E28  0012               	return		;funcret
  3636  000E2A                     __end_of_INTERRUPT_Initialize:
  3637                           	opt callstack 0
  3638                           
  3639 ;; *************** function _EUSART1_Initialize *****************
  3640 ;; Defined at:
  3641 ;;		line 66 in file "mcc_generated_files/eusart1.c"
  3642 ;; Parameters:    Size  Location     Type
  3643 ;;		None
  3644 ;; Auto vars:     Size  Location     Type
  3645 ;;		None
  3646 ;; Return value:  Size  Location     Type
  3647 ;;                  1    wreg      void 
  3648 ;; Registers used:
  3649 ;;		wreg, status,2, status,0, cstack
  3650 ;; Tracked objects:
  3651 ;;		On entry : 0/0
  3652 ;;		On exit  : 0/0
  3653 ;;		Unchanged: 0/0
  3654 ;; Data sizes:     COMRAM   BANK0   BANK1   BANK2   BANK3   BANK4   BANK5   BANK6   BANK7   BANK8   BANK9  BANK10  BANK1
      +1  BANK12  BANK13  BANK14  BANK15
  3655 ;;      Params:         0       0       0       0       0       0       0       0       0       0       0       0       
      +0       0       0       0       0
  3656 ;;      Locals:         0       0       0       0       0       0       0       0       0       0       0       0       
      +0       0       0       0       0
  3657 ;;      Temps:          0       0       0       0       0       0       0       0       0       0       0       0       
      +0       0       0       0       0
  3658 ;;      Totals:         0       0       0       0       0       0       0       0       0       0       0       0       
      +0       0       0       0       0
  3659 ;;Total ram usage:        0 bytes
  3660 ;; Hardware stack levels used:    1
  3661 ;; Hardware stack levels required when called:    5
  3662 ;; This function calls:
  3663 ;;		_EUSART1_SetErrorHandler
  3664 ;;		_EUSART1_SetFramingErrorHandler
  3665 ;;		_EUSART1_SetOverrunErrorHandler
  3666 ;; This function is called by:
  3667 ;;		_SYSTEM_Initialize
  3668 ;; This function uses a non-reentrant model
  3669 ;;
  3670                           
  3671                           	psect	text23
  3672  000B2A                     __ptext23:
  3673                           	opt callstack 0
  3674  000B2A                     _EUSART1_Initialize:
  3675                           	opt callstack 24
  3676  000B2A                     
  3677                           ;mcc_generated_files/eusart1.c: 71:     BAUDCON1 = 0x08;
  3678  000B2A  0E08               	movlw	8
  3679  000B2C  6EB8               	movwf	184,c	;volatile
  3680                           
  3681                           ;mcc_generated_files/eusart1.c: 74:     RCSTA1 = 0x90;
  3682  000B2E  0E90               	movlw	144
  3683  000B30  6EAB               	movwf	171,c	;volatile
  3684                           
  3685                           ;mcc_generated_files/eusart1.c: 77:     TXSTA1 = 0x24;
  3686  000B32  0E24               	movlw	36
  3687  000B34  6EAC               	movwf	172,c	;volatile
  3688                           
  3689                           ;mcc_generated_files/eusart1.c: 80:     SPBRG1 = 0x82;
  3690  000B36  0E82               	movlw	130
  3691  000B38  6EAF               	movwf	175,c	;volatile
  3692                           
  3693                           ;mcc_generated_files/eusart1.c: 83:     SPBRGH1 = 0x06;
  3694  000B3A  0E06               	movlw	6
  3695  000B3C  6EB0               	movwf	176,c	;volatile
  3696  000B3E                     
  3697                           ;mcc_generated_files/eusart1.c: 86:     EUSART1_SetFramingErrorHandler(EUSART1_DefaultFr
      +                          amingErrorHandler);
  3698  000B3E  0E00               	movlw	0
  3699  000B40  6E03               	movwf	EUSART1_SetFramingErrorHandler@interruptHandler^0,c
  3700  000B42  0E00               	movlw	0
  3701  000B44  6E04               	movwf	(EUSART1_SetFramingErrorHandler@interruptHandler+1)^0,c
  3702  000B46  EC09  F007         	call	_EUSART1_SetFramingErrorHandler	;wreg free
  3703  000B4A                     
  3704                           ;mcc_generated_files/eusart1.c: 87:     EUSART1_SetOverrunErrorHandler(EUSART1_DefaultOv
      +                          errunErrorHandler);
  3705  000B4A  0E00               	movlw	0
  3706  000B4C  6E03               	movwf	EUSART1_SetOverrunErrorHandler@interruptHandler^0,c
  3707  000B4E  0E00               	movlw	0
  3708  000B50  6E04               	movwf	(EUSART1_SetOverrunErrorHandler@interruptHandler+1)^0,c
  3709  000B52  EC04  F007         	call	_EUSART1_SetOverrunErrorHandler	;wreg free
  3710  000B56                     
  3711                           ;mcc_generated_files/eusart1.c: 88:     EUSART1_SetErrorHandler(EUSART1_DefaultErrorHand
      +                          ler);
  3712  000B56  0E00               	movlw	0
  3713  000B58  6E03               	movwf	EUSART1_SetErrorHandler@interruptHandler^0,c
  3714  000B5A  0E00               	movlw	0
  3715  000B5C  6E04               	movwf	(EUSART1_SetErrorHandler@interruptHandler+1)^0,c
  3716  000B5E  EC0E  F007         	call	_EUSART1_SetErrorHandler	;wreg free
  3717  000B62                     
  3718                           ;mcc_generated_files/eusart1.c: 90:     eusart1RxLastError.status = 0;
  3719  000B62  0E00               	movlw	0
  3720  000B64  0100               	movlb	0	; () banked
  3721  000B66  6F7C               	movwf	_eusart1RxLastError& (0+255),b	;volatile
  3722  000B68                     
  3723                           ; BSR set to: 0
  3724  000B68  0012               	return		;funcret
  3725  000B6A                     __end_of_EUSART1_Initialize:
  3726                           	opt callstack 0
  3727                           
  3728 ;; *************** function _EUSART1_SetOverrunErrorHandler *****************
  3729 ;; Defined at:
  3730 ;;		line 170 in file "mcc_generated_files/eusart1.c"
  3731 ;; Parameters:    Size  Location     Type
  3732 ;;  interruptHan    2    2[COMRAM] PTR FTN()void 
  3733 ;;		 -> EUSART1_DefaultOverrunErrorHandler(1), 
  3734 ;; Auto vars:     Size  Location     Type
  3735 ;;		None
  3736 ;; Return value:  Size  Location     Type
  3737 ;;                  1    wreg      void 
  3738 ;; Registers used:
  3739 ;;		wreg, status,2, status,0
  3740 ;; Tracked objects:
  3741 ;;		On entry : 0/0
  3742 ;;		On exit  : 0/0
  3743 ;;		Unchanged: 0/0
  3744 ;; Data sizes:     COMRAM   BANK0   BANK1   BANK2   BANK3   BANK4   BANK5   BANK6   BANK7   BANK8   BANK9  BANK10  BANK1
      +1  BANK12  BANK13  BANK14  BANK15
  3745 ;;      Params:         2       0       0       0       0       0       0       0       0       0       0       0       
      +0       0       0       0       0
  3746 ;;      Locals:         0       0       0       0       0       0       0       0       0       0       0       0       
      +0       0       0       0       0
  3747 ;;      Temps:          0       0       0       0       0       0       0       0       0       0       0       0       
      +0       0       0       0       0
  3748 ;;      Totals:         2       0       0       0       0       0       0       0       0       0       0       0       
      +0       0       0       0       0
  3749 ;;Total ram usage:        2 bytes
  3750 ;; Hardware stack levels used:    1
  3751 ;; Hardware stack levels required when called:    4
  3752 ;; This function calls:
  3753 ;;		Nothing
  3754 ;; This function is called by:
  3755 ;;		_EUSART1_Initialize
  3756 ;; This function uses a non-reentrant model
  3757 ;;
  3758                           
  3759                           	psect	text24
  3760  000E08                     __ptext24:
  3761                           	opt callstack 0
  3762  000E08                     _EUSART1_SetOverrunErrorHandler:
  3763                           	opt callstack 24
  3764  000E08                     
  3765                           ;mcc_generated_files/eusart1.c: 171:     EUSART1_OverrunErrorHandler = interruptHandler;
  3766  000E08  C003  F076         	movff	EUSART1_SetOverrunErrorHandler@interruptHandler,_EUSART1_OverrunErrorHandler
  3767  000E0C  C004  F077         	movff	EUSART1_SetOverrunErrorHandler@interruptHandler+1,_EUSART1_OverrunErrorHandler+1
  3768  000E10  0012               	return		;funcret
  3769  000E12                     __end_of_EUSART1_SetOverrunErrorHandler:
  3770                           	opt callstack 0
  3771                           
  3772 ;; *************** function _EUSART1_SetFramingErrorHandler *****************
  3773 ;; Defined at:
  3774 ;;		line 166 in file "mcc_generated_files/eusart1.c"
  3775 ;; Parameters:    Size  Location     Type
  3776 ;;  interruptHan    2    2[COMRAM] PTR FTN()void 
  3777 ;;		 -> EUSART1_DefaultFramingErrorHandler(1), 
  3778 ;; Auto vars:     Size  Location     Type
  3779 ;;		None
  3780 ;; Return value:  Size  Location     Type
  3781 ;;                  1    wreg      void 
  3782 ;; Registers used:
  3783 ;;		wreg, status,2, status,0
  3784 ;; Tracked objects:
  3785 ;;		On entry : 0/0
  3786 ;;		On exit  : 0/0
  3787 ;;		Unchanged: 0/0
  3788 ;; Data sizes:     COMRAM   BANK0   BANK1   BANK2   BANK3   BANK4   BANK5   BANK6   BANK7   BANK8   BANK9  BANK10  BANK1
      +1  BANK12  BANK13  BANK14  BANK15
  3789 ;;      Params:         2       0       0       0       0       0       0       0       0       0       0       0       
      +0       0       0       0       0
  3790 ;;      Locals:         0       0       0       0       0       0       0       0       0       0       0       0       
      +0       0       0       0       0
  3791 ;;      Temps:          0       0       0       0       0       0       0       0       0       0       0       0       
      +0       0       0       0       0
  3792 ;;      Totals:         2       0       0       0       0       0       0       0       0       0       0       0       
      +0       0       0       0       0
  3793 ;;Total ram usage:        2 bytes
  3794 ;; Hardware stack levels used:    1
  3795 ;; Hardware stack levels required when called:    4
  3796 ;; This function calls:
  3797 ;;		Nothing
  3798 ;; This function is called by:
  3799 ;;		_EUSART1_Initialize
  3800 ;; This function uses a non-reentrant model
  3801 ;;
  3802                           
  3803                           	psect	text25
  3804  000E12                     __ptext25:
  3805                           	opt callstack 0
  3806  000E12                     _EUSART1_SetFramingErrorHandler:
  3807                           	opt callstack 24
  3808  000E12                     
  3809                           ;mcc_generated_files/eusart1.c: 167:     EUSART1_FramingErrorHandler = interruptHandler;
  3810  000E12  C003  F078         	movff	EUSART1_SetFramingErrorHandler@interruptHandler,_EUSART1_FramingErrorHandler
  3811  000E16  C004  F079         	movff	EUSART1_SetFramingErrorHandler@interruptHandler+1,_EUSART1_FramingErrorHandler+1
  3812  000E1A  0012               	return		;funcret
  3813  000E1C                     __end_of_EUSART1_SetFramingErrorHandler:
  3814                           	opt callstack 0
  3815                           
  3816 ;; *************** function _EUSART1_SetErrorHandler *****************
  3817 ;; Defined at:
  3818 ;;		line 174 in file "mcc_generated_files/eusart1.c"
  3819 ;; Parameters:    Size  Location     Type
  3820 ;;  interruptHan    2    2[COMRAM] PTR FTN()void 
  3821 ;;		 -> EUSART1_DefaultErrorHandler(1), 
  3822 ;; Auto vars:     Size  Location     Type
  3823 ;;		None
  3824 ;; Return value:  Size  Location     Type
  3825 ;;                  1    wreg      void 
  3826 ;; Registers used:
  3827 ;;		wreg, status,2, status,0
  3828 ;; Tracked objects:
  3829 ;;		On entry : 0/0
  3830 ;;		On exit  : 0/0
  3831 ;;		Unchanged: 0/0
  3832 ;; Data sizes:     COMRAM   BANK0   BANK1   BANK2   BANK3   BANK4   BANK5   BANK6   BANK7   BANK8   BANK9  BANK10  BANK1
      +1  BANK12  BANK13  BANK14  BANK15
  3833 ;;      Params:         2       0       0       0       0       0       0       0       0       0       0       0       
      +0       0       0       0       0
  3834 ;;      Locals:         0       0       0       0       0       0       0       0       0       0       0       0       
      +0       0       0       0       0
  3835 ;;      Temps:          0       0       0       0       0       0       0       0       0       0       0       0       
      +0       0       0       0       0
  3836 ;;      Totals:         2       0       0       0       0       0       0       0       0       0       0       0       
      +0       0       0       0       0
  3837 ;;Total ram usage:        2 bytes
  3838 ;; Hardware stack levels used:    1
  3839 ;; Hardware stack levels required when called:    4
  3840 ;; This function calls:
  3841 ;;		Nothing
  3842 ;; This function is called by:
  3843 ;;		_EUSART1_Initialize
  3844 ;; This function uses a non-reentrant model
  3845 ;;
  3846                           
  3847                           	psect	text26
  3848  000E1C                     __ptext26:
  3849                           	opt callstack 0
  3850  000E1C                     _EUSART1_SetErrorHandler:
  3851                           	opt callstack 24
  3852  000E1C                     
  3853                           ;mcc_generated_files/eusart1.c: 175:     EUSART1_ErrorHandler = interruptHandler;
  3854  000E1C  C003  F074         	movff	EUSART1_SetErrorHandler@interruptHandler,_EUSART1_ErrorHandler
  3855  000E20  C004  F075         	movff	EUSART1_SetErrorHandler@interruptHandler+1,_EUSART1_ErrorHandler+1
  3856  000E24  0012               	return		;funcret
  3857  000E26                     __end_of_EUSART1_SetErrorHandler:
  3858                           	opt callstack 0
  3859                           
  3860 ;; *************** function _EPWM2_Initialize *****************
  3861 ;; Defined at:
  3862 ;;		line 64 in file "mcc_generated_files/epwm2.c"
  3863 ;; Parameters:    Size  Location     Type
  3864 ;;		None
  3865 ;; Auto vars:     Size  Location     Type
  3866 ;;		None
  3867 ;; Return value:  Size  Location     Type
  3868 ;;                  1    wreg      void 
  3869 ;; Registers used:
  3870 ;;		wreg, status,2
  3871 ;; Tracked objects:
  3872 ;;		On entry : 0/0
  3873 ;;		On exit  : 0/0
  3874 ;;		Unchanged: 0/0
  3875 ;; Data sizes:     COMRAM   BANK0   BANK1   BANK2   BANK3   BANK4   BANK5   BANK6   BANK7   BANK8   BANK9  BANK10  BANK1
      +1  BANK12  BANK13  BANK14  BANK15
  3876 ;;      Params:         0       0       0       0       0       0       0       0       0       0       0       0       
      +0       0       0       0       0
  3877 ;;      Locals:         0       0       0       0       0       0       0       0       0       0       0       0       
      +0       0       0       0       0
  3878 ;;      Temps:          0       0       0       0       0       0       0       0       0       0       0       0       
      +0       0       0       0       0
  3879 ;;      Totals:         0       0       0       0       0       0       0       0       0       0       0       0       
      +0       0       0       0       0
  3880 ;;Total ram usage:        0 bytes
  3881 ;; Hardware stack levels used:    1
  3882 ;; Hardware stack levels required when called:    4
  3883 ;; This function calls:
  3884 ;;		Nothing
  3885 ;; This function is called by:
  3886 ;;		_SYSTEM_Initialize
  3887 ;; This function uses a non-reentrant model
  3888 ;;
  3889                           
  3890                           	psect	text27
  3891  000D0A                     __ptext27:
  3892                           	opt callstack 0
  3893  000D0A                     _EPWM2_Initialize:
  3894                           	opt callstack 25
  3895  000D0A                     
  3896                           ;mcc_generated_files/epwm2.c: 69:  CCP2CON = 0x3C;
  3897  000D0A  0E3C               	movlw	60
  3898  000D0C  6E66               	movwf	102,c	;volatile
  3899                           
  3900                           ;mcc_generated_files/epwm2.c: 72:  ECCP2AS = 0x00;
  3901  000D0E  0E00               	movlw	0
  3902  000D10  6E64               	movwf	100,c	;volatile
  3903                           
  3904                           ;mcc_generated_files/epwm2.c: 75:  PWM2CON = 0x80;
  3905  000D12  0E80               	movlw	128
  3906  000D14  6E65               	movwf	101,c	;volatile
  3907                           
  3908                           ;mcc_generated_files/epwm2.c: 78:  PSTR2CON = 0x01;
  3909  000D16  0E01               	movlw	1
  3910  000D18  6E63               	movwf	99,c	;volatile
  3911                           
  3912                           ;mcc_generated_files/epwm2.c: 81:  CCPR2H = 0x00;
  3913  000D1A  0E00               	movlw	0
  3914  000D1C  6E68               	movwf	104,c	;volatile
  3915                           
  3916                           ;mcc_generated_files/epwm2.c: 84:  CCPR2L = 0x7F;
  3917  000D1E  0E7F               	movlw	127
  3918  000D20  6E67               	movwf	103,c	;volatile
  3919                           
  3920                           ;mcc_generated_files/epwm2.c: 87:  CCPTMRS0bits.C2TSEL = 0x0;
  3921  000D22  0EE7               	movlw	-25
  3922  000D24  010F               	movlb	15	; () banked
  3923  000D26  1749               	andwf	73,f,b	;volatile
  3924  000D28                     
  3925                           ; BSR set to: 15
  3926  000D28  0012               	return		;funcret
  3927  000D2A                     __end_of_EPWM2_Initialize:
  3928                           	opt callstack 0
  3929                           
  3930 ;; *************** function _EPWM1_Initialize *****************
  3931 ;; Defined at:
  3932 ;;		line 64 in file "mcc_generated_files/epwm1.c"
  3933 ;; Parameters:    Size  Location     Type
  3934 ;;		None
  3935 ;; Auto vars:     Size  Location     Type
  3936 ;;		None
  3937 ;; Return value:  Size  Location     Type
  3938 ;;                  1    wreg      void 
  3939 ;; Registers used:
  3940 ;;		wreg, status,2
  3941 ;; Tracked objects:
  3942 ;;		On entry : 0/0
  3943 ;;		On exit  : 0/0
  3944 ;;		Unchanged: 0/0
  3945 ;; Data sizes:     COMRAM   BANK0   BANK1   BANK2   BANK3   BANK4   BANK5   BANK6   BANK7   BANK8   BANK9  BANK10  BANK1
      +1  BANK12  BANK13  BANK14  BANK15
  3946 ;;      Params:         0       0       0       0       0       0       0       0       0       0       0       0       
      +0       0       0       0       0
  3947 ;;      Locals:         0       0       0       0       0       0       0       0       0       0       0       0       
      +0       0       0       0       0
  3948 ;;      Temps:          0       0       0       0       0       0       0       0       0       0       0       0       
      +0       0       0       0       0
  3949 ;;      Totals:         0       0       0       0       0       0       0       0       0       0       0       0       
      +0       0       0       0       0
  3950 ;;Total ram usage:        0 bytes
  3951 ;; Hardware stack levels used:    1
  3952 ;; Hardware stack levels required when called:    4
  3953 ;; This function calls:
  3954 ;;		Nothing
  3955 ;; This function is called by:
  3956 ;;		_SYSTEM_Initialize
  3957 ;; This function uses a non-reentrant model
  3958 ;;
  3959                           
  3960                           	psect	text28
  3961  000D2A                     __ptext28:
  3962                           	opt callstack 0
  3963  000D2A                     _EPWM1_Initialize:
  3964                           	opt callstack 25
  3965  000D2A                     
  3966                           ;mcc_generated_files/epwm1.c: 69:  CCP1CON = 0x3C;
  3967  000D2A  0E3C               	movlw	60
  3968  000D2C  6EBD               	movwf	189,c	;volatile
  3969                           
  3970                           ;mcc_generated_files/epwm1.c: 72:  ECCP1AS = 0x00;
  3971  000D2E  0E00               	movlw	0
  3972  000D30  6EB6               	movwf	182,c	;volatile
  3973                           
  3974                           ;mcc_generated_files/epwm1.c: 75:  PWM1CON = 0x80;
  3975  000D32  0E80               	movlw	128
  3976  000D34  6EB7               	movwf	183,c	;volatile
  3977                           
  3978                           ;mcc_generated_files/epwm1.c: 78:  PSTR1CON = 0x01;
  3979  000D36  0E01               	movlw	1
  3980  000D38  6EB9               	movwf	185,c	;volatile
  3981                           
  3982                           ;mcc_generated_files/epwm1.c: 81:  CCPR1H = 0x00;
  3983  000D3A  0E00               	movlw	0
  3984  000D3C  6EBF               	movwf	191,c	;volatile
  3985                           
  3986                           ;mcc_generated_files/epwm1.c: 84:  CCPR1L = 0x7F;
  3987  000D3E  0E7F               	movlw	127
  3988  000D40  6EBE               	movwf	190,c	;volatile
  3989                           
  3990                           ;mcc_generated_files/epwm1.c: 87:  CCPTMRS0bits.C1TSEL = 0x0;
  3991  000D42  0EFC               	movlw	-4
  3992  000D44  010F               	movlb	15	; () banked
  3993  000D46  1749               	andwf	73,f,b	;volatile
  3994  000D48                     
  3995                           ; BSR set to: 15
  3996  000D48  0012               	return		;funcret
  3997  000D4A                     __end_of_EPWM1_Initialize:
  3998                           	opt callstack 0
  3999                           
  4000 ;; *************** function _EUSART1_is_rx_ready *****************
  4001 ;; Defined at:
  4002 ;;		line 99 in file "mcc_generated_files/eusart1.c"
  4003 ;; Parameters:    Size  Location     Type
  4004 ;;		None
  4005 ;; Auto vars:     Size  Location     Type
  4006 ;;		None
  4007 ;; Return value:  Size  Location     Type
  4008 ;;                  1    wreg      _Bool 
  4009 ;; Registers used:
  4010 ;;		wreg
  4011 ;; Tracked objects:
  4012 ;;		On entry : 0/0
  4013 ;;		On exit  : 0/0
  4014 ;;		Unchanged: 0/0
  4015 ;; Data sizes:     COMRAM   BANK0   BANK1   BANK2   BANK3   BANK4   BANK5   BANK6   BANK7   BANK8   BANK9  BANK10  BANK1
      +1  BANK12  BANK13  BANK14  BANK15
  4016 ;;      Params:         0       0       0       0       0       0       0       0       0       0       0       0       
      +0       0       0       0       0
  4017 ;;      Locals:         0       0       0       0       0       0       0       0       0       0       0       0       
      +0       0       0       0       0
  4018 ;;      Temps:          0       0       0       0       0       0       0       0       0       0       0       0       
      +0       0       0       0       0
  4019 ;;      Totals:         0       0       0       0       0       0       0       0       0       0       0       0       
      +0       0       0       0       0
  4020 ;;Total ram usage:        0 bytes
  4021 ;; Hardware stack levels used:    1
  4022 ;; Hardware stack levels required when called:    4
  4023 ;; This function calls:
  4024 ;;		Nothing
  4025 ;; This function is called by:
  4026 ;;		_main
  4027 ;; This function uses a non-reentrant model
  4028 ;;
  4029                           
  4030                           	psect	text29
  4031  000DC8                     __ptext29:
  4032                           	opt callstack 0
  4033  000DC8                     _EUSART1_is_rx_ready:
  4034                           	opt callstack 26
  4035  000DC8                     
  4036                           ;mcc_generated_files/eusart1.c: 101:     return (_Bool)(PIR1bits.RC1IF);
  4037  000DC8  BA9E               	btfsc	158,5,c	;volatile
  4038  000DCA  EFE9  F006         	goto	u901
  4039  000DCE  EFEC  F006         	goto	u900
  4040  000DD2                     u901:
  4041  000DD2  0E01               	movlw	1
  4042  000DD4  EFED  F006         	goto	u906
  4043  000DD8                     u900:
  4044  000DD8  0E00               	movlw	0
  4045  000DDA                     u906:
  4046  000DDA  0012               	return		;funcret
  4047  000DDC                     __end_of_EUSART1_is_rx_ready:
  4048                           	opt callstack 0
  4049                           
  4050 ;; *************** function _EUSART1_Read *****************
  4051 ;; Defined at:
  4052 ;;		line 113 in file "mcc_generated_files/eusart1.c"
  4053 ;; Parameters:    Size  Location     Type
  4054 ;;		None
  4055 ;; Auto vars:     Size  Location     Type
  4056 ;;		None
  4057 ;; Return value:  Size  Location     Type
  4058 ;;                  1    wreg      unsigned char 
  4059 ;; Registers used:
  4060 ;;		wreg, status,2
  4061 ;; Tracked objects:
  4062 ;;		On entry : 0/0
  4063 ;;		On exit  : 0/0
  4064 ;;		Unchanged: 0/0
  4065 ;; Data sizes:     COMRAM   BANK0   BANK1   BANK2   BANK3   BANK4   BANK5   BANK6   BANK7   BANK8   BANK9  BANK10  BANK1
      +1  BANK12  BANK13  BANK14  BANK15
  4066 ;;      Params:         0       0       0       0       0       0       0       0       0       0       0       0       
      +0       0       0       0       0
  4067 ;;      Locals:         0       0       0       0       0       0       0       0       0       0       0       0       
      +0       0       0       0       0
  4068 ;;      Temps:          0       0       0       0       0       0       0       0       0       0       0       0       
      +0       0       0       0       0
  4069 ;;      Totals:         0       0       0       0       0       0       0       0       0       0       0       0       
      +0       0       0       0       0
  4070 ;;Total ram usage:        0 bytes
  4071 ;; Hardware stack levels used:    1
  4072 ;; Hardware stack levels required when called:    4
  4073 ;; This function calls:
  4074 ;;		Nothing
  4075 ;; This function is called by:
  4076 ;;		_main
  4077 ;;		_getch
  4078 ;; This function uses a non-reentrant model
  4079 ;;
  4080                           
  4081                           	psect	text30
  4082  000C6C                     __ptext30:
  4083                           	opt callstack 0
  4084  000C6C                     _EUSART1_Read:
  4085                           	opt callstack 26
  4086  000C6C                     l132:
  4087                           
  4088                           ;mcc_generated_files/eusart1.c: 115:     while(!PIR1bits.RC1IF)
  4089  000C6C  AA9E               	btfss	158,5,c	;volatile
  4090  000C6E  EF3B  F006         	goto	u911
  4091  000C72  EF3D  F006         	goto	u910
  4092  000C76                     u911:
  4093  000C76  EF36  F006         	goto	l132
  4094  000C7A                     u910:
  4095  000C7A                     
  4096                           ;mcc_generated_files/eusart1.c: 119:     eusart1RxLastError.status = 0;
  4097  000C7A  0E00               	movlw	0
  4098  000C7C  0100               	movlb	0	; () banked
  4099  000C7E  6F7C               	movwf	_eusart1RxLastError& (0+255),b	;volatile
  4100  000C80                     
  4101                           ; BSR set to: 0
  4102                           ;mcc_generated_files/eusart1.c: 121:     if(1 == RCSTA1bits.OERR)
  4103  000C80  A2AB               	btfss	171,1,c	;volatile
  4104  000C82  EF45  F006         	goto	u921
  4105  000C86  EF47  F006         	goto	u920
  4106  000C8A                     u921:
  4107  000C8A  EF49  F006         	goto	l2083
  4108  000C8E                     u920:
  4109  000C8E                     
  4110                           ; BSR set to: 0
  4111                           ;mcc_generated_files/eusart1.c: 122:     {;mcc_generated_files/eusart1.c: 125:         R
      +                          CSTA1bits.CREN = 0;
  4112  000C8E  98AB               	bcf	171,4,c	;volatile
  4113                           
  4114                           ;mcc_generated_files/eusart1.c: 126:         RCSTA1bits.CREN = 1;
  4115  000C90  88AB               	bsf	171,4,c	;volatile
  4116  000C92                     l2083:
  4117                           
  4118                           ; BSR set to: 0
  4119                           ;mcc_generated_files/eusart1.c: 129:     return RCREG1;
  4120  000C92  50AE               	movf	174,w,c	;volatile
  4121  000C94                     
  4122                           ; BSR set to: 0
  4123  000C94  0012               	return		;funcret
  4124  000C96                     __end_of_EUSART1_Read:
  4125                           	opt callstack 0
  4126                           
  4127 ;; *************** function _EPWM2_LoadDutyValue *****************
  4128 ;; Defined at:
  4129 ;;		line 90 in file "mcc_generated_files/epwm2.c"
  4130 ;; Parameters:    Size  Location     Type
  4131 ;;  dutyValue       2    2[COMRAM] unsigned short 
  4132 ;; Auto vars:     Size  Location     Type
  4133 ;;		None
  4134 ;; Return value:  Size  Location     Type
  4135 ;;                  1    wreg      void 
  4136 ;; Registers used:
  4137 ;;		wreg, status,2, status,0
  4138 ;; Tracked objects:
  4139 ;;		On entry : 0/0
  4140 ;;		On exit  : 0/0
  4141 ;;		Unchanged: 0/0
  4142 ;; Data sizes:     COMRAM   BANK0   BANK1   BANK2   BANK3   BANK4   BANK5   BANK6   BANK7   BANK8   BANK9  BANK10  BANK1
      +1  BANK12  BANK13  BANK14  BANK15
  4143 ;;      Params:         2       0       0       0       0       0       0       0       0       0       0       0       
      +0       0       0       0       0
  4144 ;;      Locals:         0       0       0       0       0       0       0       0       0       0       0       0       
      +0       0       0       0       0
  4145 ;;      Temps:          2       0       0       0       0       0       0       0       0       0       0       0       
      +0       0       0       0       0
  4146 ;;      Totals:         4       0       0       0       0       0       0       0       0       0       0       0       
      +0       0       0       0       0
  4147 ;;Total ram usage:        4 bytes
  4148 ;; Hardware stack levels used:    1
  4149 ;; Hardware stack levels required when called:    4
  4150 ;; This function calls:
  4151 ;;		Nothing
  4152 ;; This function is called by:
  4153 ;;		_main
  4154 ;; This function uses a non-reentrant model
  4155 ;;
  4156                           
  4157                           	psect	text31
  4158  000BDE                     __ptext31:
  4159                           	opt callstack 0
  4160  000BDE                     _EPWM2_LoadDutyValue:
  4161                           	opt callstack 26
  4162  000BDE                     
  4163                           ;mcc_generated_files/epwm2.c: 90: void EPWM2_LoadDutyValue(uint16_t dutyValue);mcc_gener
      +                          ated_files/epwm2.c: 91: {;mcc_generated_files/epwm2.c: 93:     CCPR2L = ((dutyValue & 0x
      +                          03FC)>>2);
  4164  000BDE  C003  F005         	movff	EPWM2_LoadDutyValue@dutyValue,??_EPWM2_LoadDutyValue
  4165  000BE2  C004  F006         	movff	EPWM2_LoadDutyValue@dutyValue+1,??_EPWM2_LoadDutyValue+1
  4166  000BE6  90D8               	bcf	status,0,c
  4167  000BE8  3206               	rrcf	(??_EPWM2_LoadDutyValue+1)^0,f,c
  4168  000BEA  3205               	rrcf	??_EPWM2_LoadDutyValue^0,f,c
  4169  000BEC  90D8               	bcf	status,0,c
  4170  000BEE  3206               	rrcf	(??_EPWM2_LoadDutyValue+1)^0,f,c
  4171  000BF0  3205               	rrcf	??_EPWM2_LoadDutyValue^0,f,c
  4172  000BF2  5005               	movf	??_EPWM2_LoadDutyValue^0,w,c
  4173  000BF4  6E67               	movwf	103,c	;volatile
  4174                           
  4175                           ;mcc_generated_files/epwm2.c: 96:     CCP2CON = ((uint8_t)(CCP2CON & 0xCF) | ((dutyValue
      +                           & 0x0003)<<4));
  4176  000BF6  C003  F005         	movff	EPWM2_LoadDutyValue@dutyValue,??_EPWM2_LoadDutyValue
  4177  000BFA  0E03               	movlw	3
  4178  000BFC  1605               	andwf	??_EPWM2_LoadDutyValue^0,f,c
  4179  000BFE  3A05               	swapf	??_EPWM2_LoadDutyValue^0,f,c
  4180  000C00  0EF0               	movlw	240
  4181  000C02  1605               	andwf	??_EPWM2_LoadDutyValue^0,f,c
  4182  000C04  5066               	movf	102,w,c	;volatile
  4183  000C06  0BCF               	andlw	207
  4184  000C08  1005               	iorwf	??_EPWM2_LoadDutyValue^0,w,c
  4185  000C0A  6E66               	movwf	102,c	;volatile
  4186  000C0C  0012               	return		;funcret
  4187  000C0E                     __end_of_EPWM2_LoadDutyValue:
  4188                           	opt callstack 0
  4189                           
  4190 ;; *************** function _EPWM1_LoadDutyValue *****************
  4191 ;; Defined at:
  4192 ;;		line 90 in file "mcc_generated_files/epwm1.c"
  4193 ;; Parameters:    Size  Location     Type
  4194 ;;  dutyValue       2    2[COMRAM] unsigned short 
  4195 ;; Auto vars:     Size  Location     Type
  4196 ;;		None
  4197 ;; Return value:  Size  Location     Type
  4198 ;;                  1    wreg      void 
  4199 ;; Registers used:
  4200 ;;		wreg, status,2, status,0
  4201 ;; Tracked objects:
  4202 ;;		On entry : 0/0
  4203 ;;		On exit  : 0/0
  4204 ;;		Unchanged: 0/0
  4205 ;; Data sizes:     COMRAM   BANK0   BANK1   BANK2   BANK3   BANK4   BANK5   BANK6   BANK7   BANK8   BANK9  BANK10  BANK1
      +1  BANK12  BANK13  BANK14  BANK15
  4206 ;;      Params:         2       0       0       0       0       0       0       0       0       0       0       0       
      +0       0       0       0       0
  4207 ;;      Locals:         0       0       0       0       0       0       0       0       0       0       0       0       
      +0       0       0       0       0
  4208 ;;      Temps:          2       0       0       0       0       0       0       0       0       0       0       0       
      +0       0       0       0       0
  4209 ;;      Totals:         4       0       0       0       0       0       0       0       0       0       0       0       
      +0       0       0       0       0
  4210 ;;Total ram usage:        4 bytes
  4211 ;; Hardware stack levels used:    1
  4212 ;; Hardware stack levels required when called:    4
  4213 ;; This function calls:
  4214 ;;		Nothing
  4215 ;; This function is called by:
  4216 ;;		_main
  4217 ;; This function uses a non-reentrant model
  4218 ;;
  4219                           
  4220                           	psect	text32
  4221  000C0E                     __ptext32:
  4222                           	opt callstack 0
  4223  000C0E                     _EPWM1_LoadDutyValue:
  4224                           	opt callstack 26
  4225  000C0E                     
  4226                           ;mcc_generated_files/epwm1.c: 90: void EPWM1_LoadDutyValue(uint16_t dutyValue);mcc_gener
      +                          ated_files/epwm1.c: 91: {;mcc_generated_files/epwm1.c: 93:     CCPR1L = ((dutyValue & 0x
      +                          03FC)>>2);
  4227  000C0E  C003  F005         	movff	EPWM1_LoadDutyValue@dutyValue,??_EPWM1_LoadDutyValue
  4228  000C12  C004  F006         	movff	EPWM1_LoadDutyValue@dutyValue+1,??_EPWM1_LoadDutyValue+1
  4229  000C16  90D8               	bcf	status,0,c
  4230  000C18  3206               	rrcf	(??_EPWM1_LoadDutyValue+1)^0,f,c
  4231  000C1A  3205               	rrcf	??_EPWM1_LoadDutyValue^0,f,c
  4232  000C1C  90D8               	bcf	status,0,c
  4233  000C1E  3206               	rrcf	(??_EPWM1_LoadDutyValue+1)^0,f,c
  4234  000C20  3205               	rrcf	??_EPWM1_LoadDutyValue^0,f,c
  4235  000C22  5005               	movf	??_EPWM1_LoadDutyValue^0,w,c
  4236  000C24  6EBE               	movwf	190,c	;volatile
  4237                           
  4238                           ;mcc_generated_files/epwm1.c: 96:     CCP1CON = ((uint8_t)(CCP1CON & 0xCF) | ((dutyValue
      +                           & 0x0003)<<4));
  4239  000C26  C003  F005         	movff	EPWM1_LoadDutyValue@dutyValue,??_EPWM1_LoadDutyValue
  4240  000C2A  0E03               	movlw	3
  4241  000C2C  1605               	andwf	??_EPWM1_LoadDutyValue^0,f,c
  4242  000C2E  3A05               	swapf	??_EPWM1_LoadDutyValue^0,f,c
  4243  000C30  0EF0               	movlw	240
  4244  000C32  1605               	andwf	??_EPWM1_LoadDutyValue^0,f,c
  4245  000C34  50BD               	movf	189,w,c	;volatile
  4246  000C36  0BCF               	andlw	207
  4247  000C38  1005               	iorwf	??_EPWM1_LoadDutyValue^0,w,c
  4248  000C3A  6EBD               	movwf	189,c	;volatile
  4249  000C3C  0012               	return		;funcret
  4250  000C3E                     __end_of_EPWM1_LoadDutyValue:
  4251                           	opt callstack 0
  4252                           
  4253 ;; *************** function _INTERRUPT_InterruptManager *****************
  4254 ;; Defined at:
  4255 ;;		line 58 in file "mcc_generated_files/interrupt_manager.c"
  4256 ;; Parameters:    Size  Location     Type
  4257 ;;		None
  4258 ;; Auto vars:     Size  Location     Type
  4259 ;;		None
  4260 ;; Return value:  Size  Location     Type
  4261 ;;                  1    wreg      void 
  4262 ;; Registers used:
  4263 ;;		wreg, status,2, status,0, pclath, tosl, cstack
  4264 ;; Tracked objects:
  4265 ;;		On entry : 0/0
  4266 ;;		On exit  : 0/0
  4267 ;;		Unchanged: 0/0
  4268 ;; Data sizes:     COMRAM   BANK0   BANK1   BANK2   BANK3   BANK4   BANK5   BANK6   BANK7   BANK8   BANK9  BANK10  BANK1
      +1  BANK12  BANK13  BANK14  BANK15
  4269 ;;      Params:         0       0       0       0       0       0       0       0       0       0       0       0       
      +0       0       0       0       0
  4270 ;;      Locals:         0       0       0       0       0       0       0       0       0       0       0       0       
      +0       0       0       0       0
  4271 ;;      Temps:          2       0       0       0       0       0       0       0       0       0       0       0       
      +0       0       0       0       0
  4272 ;;      Totals:         2       0       0       0       0       0       0       0       0       0       0       0       
      +0       0       0       0       0
  4273 ;;Total ram usage:        2 bytes
  4274 ;; Hardware stack levels used:    1
  4275 ;; Hardware stack levels required when called:    3
  4276 ;; This function calls:
  4277 ;;		_PIN_MANAGER_IOC
  4278 ;; This function is called by:
  4279 ;;		Interrupt level 2
  4280 ;; This function uses a non-reentrant model
  4281 ;;
  4282                           
  4283                           	psect	intcode
  4284  000008                     __pintcode:
  4285                           	opt callstack 0
  4286  000008                     _INTERRUPT_InterruptManager:
  4287                           	opt callstack 18
  4288                           
  4289                           ;incstack = 0
  4290  000008  825D               	bsf	int$flags,1,c	;set compiler interrupt flag (level 2)
  4291  00000A  CFFA F001          	movff	pclath,??_INTERRUPT_InterruptManager
  4292  00000E  CFFB F002          	movff	pclatu,??_INTERRUPT_InterruptManager+1
  4293  000012                     
  4294                           ;mcc_generated_files/interrupt_manager.c: 61:     if(INTCONbits.RBIE == 1 && INTCONbits.
      +                          RBIF == 1)
  4295  000012  A6F2               	btfss	242,3,c	;volatile
  4296  000014  EF0E  F000         	goto	i2u95_41
  4297  000018  EF10  F000         	goto	i2u95_40
  4298  00001C                     i2u95_41:
  4299  00001C  EF19  F000         	goto	i2l348
  4300  000020                     i2u95_40:
  4301  000020  A0F2               	btfss	242,0,c	;volatile
  4302  000022  EF15  F000         	goto	i2u96_41
  4303  000026  EF17  F000         	goto	i2u96_40
  4304  00002A                     i2u96_41:
  4305  00002A  EF19  F000         	goto	i2l348
  4306  00002E                     i2u96_40:
  4307  00002E                     
  4308                           ;mcc_generated_files/interrupt_manager.c: 62:     {;mcc_generated_files/interrupt_manage
      +                          r.c: 63:         PIN_MANAGER_IOC();
  4309  00002E  ECD9  F006         	call	_PIN_MANAGER_IOC	;wreg free
  4310  000032                     i2l348:
  4311  000032  C002  FFFB         	movff	??_INTERRUPT_InterruptManager+1,pclatu
  4312  000036  C001  FFFA         	movff	??_INTERRUPT_InterruptManager,pclath
  4313  00003A  925D               	bcf	int$flags,1,c	;clear compiler interrupt flag (level 2)
  4314  00003C  0011               	retfie		f
  4315  00003E                     __end_of_INTERRUPT_InterruptManager:
  4316                           	opt callstack 0
  4317                           
  4318 ;; *************** function _PIN_MANAGER_IOC *****************
  4319 ;; Defined at:
  4320 ;;		line 104 in file "mcc_generated_files/pin_manager.c"
  4321 ;; Parameters:    Size  Location     Type
  4322 ;;		None
  4323 ;; Auto vars:     Size  Location     Type
  4324 ;;		None
  4325 ;; Return value:  Size  Location     Type
  4326 ;;                  1    wreg      void 
  4327 ;; Registers used:
  4328 ;;		wreg, status,2, status,0, pclath, tosl, cstack
  4329 ;; Tracked objects:
  4330 ;;		On entry : 0/0
  4331 ;;		On exit  : 0/0
  4332 ;;		Unchanged: 0/0
  4333 ;; Data sizes:     COMRAM   BANK0   BANK1   BANK2   BANK3   BANK4   BANK5   BANK6   BANK7   BANK8   BANK9  BANK10  BANK1
      +1  BANK12  BANK13  BANK14  BANK15
  4334 ;;      Params:         0       0       0       0       0       0       0       0       0       0       0       0       
      +0       0       0       0       0
  4335 ;;      Locals:         0       0       0       0       0       0       0       0       0       0       0       0       
      +0       0       0       0       0
  4336 ;;      Temps:          0       0       0       0       0       0       0       0       0       0       0       0       
      +0       0       0       0       0
  4337 ;;      Totals:         0       0       0       0       0       0       0       0       0       0       0       0       
      +0       0       0       0       0
  4338 ;;Total ram usage:        0 bytes
  4339 ;; Hardware stack levels used:    1
  4340 ;; Hardware stack levels required when called:    2
  4341 ;; This function calls:
  4342 ;;		_IOCB4_ISR
  4343 ;; This function is called by:
  4344 ;;		_INTERRUPT_InterruptManager
  4345 ;; This function uses a non-reentrant model
  4346 ;;
  4347                           
  4348                           	psect	text34
  4349  000DB2                     __ptext34:
  4350                           	opt callstack 0
  4351  000DB2                     _PIN_MANAGER_IOC:
  4352                           	opt callstack 18
  4353  000DB2                     
  4354                           ;mcc_generated_files/pin_manager.c: 107:     if(IOCBbits.IOCB4 == 1)
  4355  000DB2  A862               	btfss	98,4,c	;volatile
  4356  000DB4  EFDE  F006         	goto	i2u93_41
  4357  000DB8  EFE0  F006         	goto	i2u93_40
  4358  000DBC                     i2u93_41:
  4359  000DBC  EFE2  F006         	goto	i2l2109
  4360  000DC0                     i2u93_40:
  4361  000DC0                     
  4362                           ;mcc_generated_files/pin_manager.c: 108:     {;mcc_generated_files/pin_manager.c: 109:  
      +                                 IOCB4_ISR();
  4363  000DC0  EC1F  F006         	call	_IOCB4_ISR	;wreg free
  4364  000DC4                     i2l2109:
  4365                           
  4366                           ;mcc_generated_files/pin_manager.c: 112:     INTCONbits.RBIF = 0;
  4367  000DC4  90F2               	bcf	242,0,c	;volatile
  4368  000DC6  0012               	return		;funcret
  4369  000DC8                     __end_of_PIN_MANAGER_IOC:
  4370                           	opt callstack 0
  4371                           
  4372 ;; *************** function _IOCB4_ISR *****************
  4373 ;; Defined at:
  4374 ;;		line 118 in file "mcc_generated_files/pin_manager.c"
  4375 ;; Parameters:    Size  Location     Type
  4376 ;;		None
  4377 ;; Auto vars:     Size  Location     Type
  4378 ;;		None
  4379 ;; Return value:  Size  Location     Type
  4380 ;;                  1    wreg      void 
  4381 ;; Registers used:
  4382 ;;		wreg, status,2, status,0, pclath, tosl, cstack
  4383 ;; Tracked objects:
  4384 ;;		On entry : 0/0
  4385 ;;		On exit  : 0/0
  4386 ;;		Unchanged: 0/0
  4387 ;; Data sizes:     COMRAM   BANK0   BANK1   BANK2   BANK3   BANK4   BANK5   BANK6   BANK7   BANK8   BANK9  BANK10  BANK1
      +1  BANK12  BANK13  BANK14  BANK15
  4388 ;;      Params:         0       0       0       0       0       0       0       0       0       0       0       0       
      +0       0       0       0       0
  4389 ;;      Locals:         0       0       0       0       0       0       0       0       0       0       0       0       
      +0       0       0       0       0
  4390 ;;      Temps:          0       0       0       0       0       0       0       0       0       0       0       0       
      +0       0       0       0       0
  4391 ;;      Totals:         0       0       0       0       0       0       0       0       0       0       0       0       
      +0       0       0       0       0
  4392 ;;Total ram usage:        0 bytes
  4393 ;; Hardware stack levels used:    1
  4394 ;; Hardware stack levels required when called:    1
  4395 ;; This function calls:
  4396 ;;		Absolute function
  4397 ;;		_IOCB4_DefaultInterruptHandler
  4398 ;; This function is called by:
  4399 ;;		_PIN_MANAGER_IOC
  4400 ;; This function uses a non-reentrant model
  4401 ;;
  4402                           
  4403                           	psect	text35
  4404  000C3E                     __ptext35:
  4405                           	opt callstack 0
  4406  000C3E                     _IOCB4_ISR:
  4407                           	opt callstack 18
  4408  000C3E                     
  4409                           ;mcc_generated_files/pin_manager.c: 123:     if(IOCB4_InterruptHandler)
  4410  000C3E  0100               	movlb	0	; () banked
  4411  000C40  51AA               	movf	_IOCB4_InterruptHandler& (0+255),w,b
  4412  000C42  11AB               	iorwf	(_IOCB4_InterruptHandler+1)& (0+255),w,b
  4413  000C44  B4D8               	btfsc	status,2,c
  4414  000C46  EF27  F006         	goto	i2u87_41
  4415  000C4A  EF29  F006         	goto	i2u87_40
  4416  000C4E                     i2u87_41:
  4417  000C4E  EF35  F006         	goto	i2l246
  4418  000C52                     i2u87_40:
  4419  000C52                     
  4420                           ; BSR set to: 0
  4421                           ;mcc_generated_files/pin_manager.c: 124:     {;mcc_generated_files/pin_manager.c: 125:  
      +                                 IOCB4_InterruptHandler();
  4422  000C52  D802               	call	i2u88_48
  4423  000C54  EF35  F006         	goto	i2u88_49
  4424  000C58                     i2u88_48:
  4425  000C58  0005               	push	
  4426  000C5A  6EFA               	movwf	pclath,c
  4427  000C5C  51AA               	movf	_IOCB4_InterruptHandler& (0+255),w,b
  4428  000C5E  6EFD               	movwf	tosl,c
  4429  000C60  51AB               	movf	(_IOCB4_InterruptHandler+1)& (0+255),w,b
  4430  000C62  6EFE               	movwf	tosh,c
  4431  000C64  6AFF               	clrf	tosu,c
  4432  000C66  50FA               	movf	pclath,w,c
  4433  000C68  0012               	return		;indir
  4434  000C6A                     i2u88_49:
  4435  000C6A                     i2l246:
  4436  000C6A  0012               	return		;funcret
  4437  000C6C                     __end_of_IOCB4_ISR:
  4438                           	opt callstack 0
  4439                           
  4440 ;; *************** function _IOCB4_DefaultInterruptHandler *****************
  4441 ;; Defined at:
  4442 ;;		line 139 in file "mcc_generated_files/pin_manager.c"
  4443 ;; Parameters:    Size  Location     Type
  4444 ;;		None
  4445 ;; Auto vars:     Size  Location     Type
  4446 ;;		None
  4447 ;; Return value:  Size  Location     Type
  4448 ;;                  1    wreg      void 
  4449 ;; Registers used:
  4450 ;;		None
  4451 ;; Tracked objects:
  4452 ;;		On entry : 0/0
  4453 ;;		On exit  : 0/0
  4454 ;;		Unchanged: 0/0
  4455 ;; Data sizes:     COMRAM   BANK0   BANK1   BANK2   BANK3   BANK4   BANK5   BANK6   BANK7   BANK8   BANK9  BANK10  BANK1
      +1  BANK12  BANK13  BANK14  BANK15
  4456 ;;      Params:         0       0       0       0       0       0       0       0       0       0       0       0       
      +0       0       0       0       0
  4457 ;;      Locals:         0       0       0       0       0       0       0       0       0       0       0       0       
      +0       0       0       0       0
  4458 ;;      Temps:          0       0       0       0       0       0       0       0       0       0       0       0       
      +0       0       0       0       0
  4459 ;;      Totals:         0       0       0       0       0       0       0       0       0       0       0       0       
      +0       0       0       0       0
  4460 ;;Total ram usage:        0 bytes
  4461 ;; Hardware stack levels used:    1
  4462 ;; This function calls:
  4463 ;;		Nothing
  4464 ;; This function is called by:
  4465 ;;		_PIN_MANAGER_Initialize
  4466 ;;		_IOCB4_ISR
  4467 ;; This function uses a non-reentrant model
  4468 ;;
  4469                           
  4470                           	psect	text36
  4471  000E2A                     __ptext36:
  4472                           	opt callstack 0
  4473  000E2A                     _IOCB4_DefaultInterruptHandler:
  4474                           	opt callstack 18
  4475  000E2A  0012               	return		;funcret
  4476  000E2C                     __end_of_IOCB4_DefaultInterruptHandler:
  4477                           	opt callstack 0
  4478                           
  4479                           	psect	text37
  4480  000000                     __ptext37:
  4481                           	opt callstack 0
  4482  000000                     
  4483                           	psect	rparam
  4484  0000                     
  4485                           	psect	temp
  4486  00005D                     btemp:
  4487                           	opt callstack 0
  4488  00005D                     	ds	1
  4489  0000                     int$flags	set	btemp
  4490  0000                     wtemp8	set	btemp+1
  4491  0000                     ttemp5	set	btemp+1
  4492  0000                     ttemp6	set	btemp+4
  4493  0000                     ttemp7	set	btemp+8
  4494                           tosu	equ	0xFFF
  4495                           tosh	equ	0xFFE
  4496                           tosl	equ	0xFFD
  4497                           stkptr	equ	0xFFC
  4498                           pclatu	equ	0xFFB
  4499                           pclath	equ	0xFFA
  4500                           pcl	equ	0xFF9
  4501                           tblptru	equ	0xFF8
  4502                           tblptrh	equ	0xFF7
  4503                           tblptrl	equ	0xFF6
  4504                           tablat	equ	0xFF5
  4505                           prodh	equ	0xFF4
  4506                           prodl	equ	0xFF3
  4507                           indf0	equ	0xFEF
  4508                           postinc0	equ	0xFEE
  4509                           postdec0	equ	0xFED
  4510                           preinc0	equ	0xFEC
  4511                           plusw0	equ	0xFEB
  4512                           fsr0h	equ	0xFEA
  4513                           fsr0l	equ	0xFE9
  4514                           wreg	equ	0xFE8
  4515                           indf1	equ	0xFE7
  4516                           postinc1	equ	0xFE6
  4517                           postdec1	equ	0xFE5
  4518                           preinc1	equ	0xFE4
  4519                           plusw1	equ	0xFE3
  4520                           fsr1h	equ	0xFE2
  4521                           fsr1l	equ	0xFE1
  4522                           bsr	equ	0xFE0
  4523                           indf2	equ	0xFDF
  4524                           postinc2	equ	0xFDE
  4525                           postdec2	equ	0xFDD
  4526                           preinc2	equ	0xFDC
  4527                           plusw2	equ	0xFDB
  4528                           fsr2h	equ	0xFDA
  4529                           fsr2l	equ	0xFD9
  4530                           status	equ	0xFD8


Data Sizes:
    Strings     402
    Constant    0
    Data        0
    BSS         63
    Persistent  2
    Stack       0

Auto Spaces:
    Space          Size  Autos    Used
    COMRAM           94     90      92
    BANK0           160     13      76
    BANK1           256      0       0
    BANK2           256      0       0
    BANK3           256      0       0
    BANK4           256      0       0
    BANK5           256      0       0
    BANK6           256      0       0
    BANK7           256      0       0
    BANK8           256      0       0
    BANK9           256      0       0
    BANK10          256      0       0
    BANK11          256      0       0
    BANK12          256      0       0
    BANK13          256      0       0
    BANK14          256      0       0
    BANK15           56      0       0

Pointer List with Targets:

    strlen@s	PTR const unsigned char  size(2) Largest target is 32
		 -> dbuf(BANK0[32]), 

    strlen@a	PTR const unsigned char  size(2) Largest target is 32
		 -> dbuf(BANK0[32]), 

    printf@fmt	PTR const unsigned char  size(2) Largest target is 52
		 -> STR_22(CODE[17]), STR_21(CODE[19]), STR_20(CODE[23]), STR_19(CODE[16]), 
		 -> STR_18(CODE[21]), STR_17(CODE[22]), STR_16(CODE[2]), STR_15(CODE[2]), 
		 -> STR_14(CODE[13]), STR_13(CODE[52]), STR_12(CODE[24]), STR_11(CODE[29]), 
		 -> STR_10(CODE[20]), STR_9(CODE[25]), STR_8(CODE[22]), STR_7(CODE[7]), 
		 -> STR_6(CODE[15]), STR_5(CODE[52]), STR_4(CODE[5]), STR_3(CODE[26]), 
		 -> STR_2(CODE[26]), STR_1(CODE[20]), 

    printf@ap	PTR void [1] size(2) Largest target is 2
		 -> ?_printf(BANK0[2]), 

    fputs@s	PTR const unsigned char  size(2) Largest target is 32
		 -> dbuf(BANK0[32]), 

    fputs@fp	PTR struct _IO_FILE size(2) Largest target is 0
		 -> NULL(NULL[0]), 

    S1818_IO_FILE$buffer	PTR unsigned char  size(2) Largest target is 0

    fputc@fp.buffer	PTR unsigned char  size(2) Largest target is 0

    fputc@fp	PTR struct _IO_FILE size(2) Largest target is 0
		 -> NULL(NULL[0]), 

    vfprintf@ap	PTR PTR void  size(2) Largest target is 2
		 -> printf@ap(BANK0[2]), 

    vfprintf@fp	PTR struct _IO_FILE size(2) Largest target is 0
		 -> NULL(NULL[0]), 

    vfprintf@fmt	PTR const unsigned char  size(2) Largest target is 52
		 -> STR_22(CODE[17]), STR_21(CODE[19]), STR_20(CODE[23]), STR_19(CODE[16]), 
		 -> STR_18(CODE[21]), STR_17(CODE[22]), STR_16(CODE[2]), STR_15(CODE[2]), 
		 -> STR_14(CODE[13]), STR_13(CODE[52]), STR_12(CODE[24]), STR_11(CODE[29]), 
		 -> STR_10(CODE[20]), STR_9(CODE[25]), STR_8(CODE[22]), STR_7(CODE[7]), 
		 -> STR_6(CODE[15]), STR_5(CODE[52]), STR_4(CODE[5]), STR_3(CODE[26]), 
		 -> STR_2(CODE[26]), STR_1(CODE[20]), 

    vfprintf@cfmt	PTR unsigned char  size(2) Largest target is 52
		 -> STR_22(CODE[17]), STR_21(CODE[19]), STR_20(CODE[23]), STR_19(CODE[16]), 
		 -> STR_18(CODE[21]), STR_17(CODE[22]), STR_16(CODE[2]), STR_15(CODE[2]), 
		 -> STR_14(CODE[13]), STR_13(CODE[52]), STR_12(CODE[24]), STR_11(CODE[29]), 
		 -> STR_10(CODE[20]), STR_9(CODE[25]), STR_8(CODE[22]), STR_7(CODE[7]), 
		 -> STR_6(CODE[15]), STR_5(CODE[52]), STR_4(CODE[5]), STR_3(CODE[26]), 
		 -> STR_2(CODE[26]), STR_1(CODE[20]), 

    vfpfcnvrt@fp	PTR struct _IO_FILE size(2) Largest target is 0
		 -> NULL(NULL[0]), 

    vfpfcnvrt@ap	PTR PTR void  size(2) Largest target is 2
		 -> printf@ap(BANK0[2]), 

    vfpfcnvrt@fmt	PTR PTR unsigned char  size(2) Largest target is 2
		 -> vfprintf@cfmt(COMRAM[2]), 

    utoa@fp	PTR struct _IO_FILE size(2) Largest target is 0
		 -> NULL(NULL[0]), 

    ctoa@fp	PTR struct _IO_FILE size(2) Largest target is 0
		 -> NULL(NULL[0]), 

    pad@fp	PTR struct _IO_FILE size(2) Largest target is 0
		 -> NULL(NULL[0]), 

    pad@buf	PTR unsigned char  size(2) Largest target is 32
		 -> dbuf(BANK0[32]), 

    IOCB4_SetInterruptHandler@InterruptHandler	PTR FTN()void  size(2) Largest target is 1
		 -> IOCB4_DefaultInterruptHandler(), 

    IOCB4_InterruptHandler	PTR FTN()void  size(2) Largest target is 1
		 -> Absolute function(), IOCB4_DefaultInterruptHandler(), 

    EUSART1_SetErrorHandler@interruptHandler	PTR FTN()void  size(2) Largest target is 1
		 -> EUSART1_DefaultErrorHandler(), 

    EUSART1_ErrorHandler	PTR FTN()void  size(2) Largest target is 1
		 -> Absolute function(), EUSART1_DefaultErrorHandler(), 

    EUSART1_SetOverrunErrorHandler@interruptHandler	PTR FTN()void  size(2) Largest target is 1
		 -> EUSART1_DefaultOverrunErrorHandler(), 

    EUSART1_OverrunErrorHandler	PTR FTN()void  size(2) Largest target is 1
		 -> Absolute function(), EUSART1_DefaultOverrunErrorHandler(), 

    EUSART1_SetFramingErrorHandler@interruptHandler	PTR FTN()void  size(2) Largest target is 1
		 -> EUSART1_DefaultFramingErrorHandler(), 

    EUSART1_FramingErrorHandler	PTR FTN()void  size(2) Largest target is 1
		 -> Absolute function(), EUSART1_DefaultFramingErrorHandler(), 


Critical Paths under _main in COMRAM

    _printf->_vfprintf
    _vfprintf->_vfpfcnvrt
    _vfpfcnvrt->_utoa
    _utoa->_pad
    _ctoa->_pad
    _pad->_fputs
    _fputs->_fputc
    _fputc->_putch
    _putch->_EUSART1_Write
    _SYSTEM_Initialize->_TMR0_Initialize
    _PIN_MANAGER_Initialize->_IOCB4_SetInterruptHandler
    _EUSART1_Initialize->_EUSART1_SetErrorHandler
    _EUSART1_Initialize->_EUSART1_SetFramingErrorHandler
    _EUSART1_Initialize->_EUSART1_SetOverrunErrorHandler

Critical Paths under _INTERRUPT_InterruptManager in COMRAM

    None.

Critical Paths under _main in BANK0

    _main->_printf

Critical Paths under _INTERRUPT_InterruptManager in BANK0

    None.

Critical Paths under _main in BANK1

    None.

Critical Paths under _INTERRUPT_InterruptManager in BANK1

    None.

Critical Paths under _main in BANK2

    None.

Critical Paths under _INTERRUPT_InterruptManager in BANK2

    None.

Critical Paths under _main in BANK3

    None.

Critical Paths under _INTERRUPT_InterruptManager in BANK3

    None.

Critical Paths under _main in BANK4

    None.

Critical Paths under _INTERRUPT_InterruptManager in BANK4

    None.

Critical Paths under _main in BANK5

    None.

Critical Paths under _INTERRUPT_InterruptManager in BANK5

    None.

Critical Paths under _main in BANK6

    None.

Critical Paths under _INTERRUPT_InterruptManager in BANK6

    None.

Critical Paths under _main in BANK7

    None.

Critical Paths under _INTERRUPT_InterruptManager in BANK7

    None.

Critical Paths under _main in BANK8

    None.

Critical Paths under _INTERRUPT_InterruptManager in BANK8

    None.

Critical Paths under _main in BANK9

    None.

Critical Paths under _INTERRUPT_InterruptManager in BANK9

    None.

Critical Paths under _main in BANK10

    None.

Critical Paths under _INTERRUPT_InterruptManager in BANK10

    None.

Critical Paths under _main in BANK11

    None.

Critical Paths under _INTERRUPT_InterruptManager in BANK11

    None.

Critical Paths under _main in BANK12

    None.

Critical Paths under _INTERRUPT_InterruptManager in BANK12

    None.

Critical Paths under _main in BANK13

    None.

Critical Paths under _INTERRUPT_InterruptManager in BANK13

    None.

Critical Paths under _main in BANK14

    None.

Critical Paths under _INTERRUPT_InterruptManager in BANK14

    None.

Critical Paths under _main in BANK15

    None.

Critical Paths under _INTERRUPT_InterruptManager in BANK15

    None.

Call Graph Tables:

 ---------------------------------------------------------------------------------
 (Depth) Function   	        Calls       Base Space   Used Autos Params    Refs
 ---------------------------------------------------------------------------------
 (0) _main                                                 5     5      0   11827
                                              8 BANK0      5     5      0
                _EPWM1_LoadDutyValue
                _EPWM2_LoadDutyValue
                       _EUSART1_Read
                _EUSART1_is_rx_ready
                  _SYSTEM_Initialize
                    _TMR0_WriteTimer
                             _printf
 ---------------------------------------------------------------------------------
 (1) _printf                                               8     4      4   10600
                                              0 BANK0      8     4      4
                           _vfprintf
 ---------------------------------------------------------------------------------
 (2) _vfprintf                                             8     2      6    8872
                                             82 COMRAM     8     2      6
                          _vfpfcnvrt
 ---------------------------------------------------------------------------------
 (3) _vfpfcnvrt                                           44    38      6    8516
                                             63 COMRAM    19    13      6
                               _ctoa
                              _fputc
                               _utoa
 ---------------------------------------------------------------------------------
 (4) _utoa                                                32    22     10    3943
                                             31 COMRAM    32    22     10
                            ___lodiv
                            ___lomod
                                _pad
 ---------------------------------------------------------------------------------
 (5) ___lomod                                             17     1     16     311
                                              2 COMRAM    17     1     16
 ---------------------------------------------------------------------------------
 (5) ___lodiv                                             25     9     16     314
                                              2 COMRAM    25     9     16
 ---------------------------------------------------------------------------------
 (4) _ctoa                                                 7     4      3    3113
                                             31 COMRAM     5     2      3
                                _pad
 ---------------------------------------------------------------------------------
 (5) _pad                                                 11     5      6    2893
                                             20 COMRAM    11     5      6
                              _fputc
                              _fputs
                             _strlen
 ---------------------------------------------------------------------------------
 (6) _strlen                                               4     2      2     166
                                              2 COMRAM     4     2      2
 ---------------------------------------------------------------------------------
 (6) _fputs                                                7     3      4    1213
                                             13 COMRAM     7     3      4
                              _fputc
 ---------------------------------------------------------------------------------
 (7) _fputc                                                9     5      4     812
                                              4 COMRAM     9     5      4
                              _putch
 ---------------------------------------------------------------------------------
 (8) _putch                                                1     1      0      44
                                              3 COMRAM     1     1      0
                      _EUSART1_Write
 ---------------------------------------------------------------------------------
 (9) _EUSART1_Write                                        1     1      0      22
                                              2 COMRAM     1     1      0
 ---------------------------------------------------------------------------------
 (1) _TMR0_WriteTimer                                      2     0      2     196
                                              2 COMRAM     2     0      2
 ---------------------------------------------------------------------------------
 (1) _SYSTEM_Initialize                                    0     0      0     392
                   _EPWM1_Initialize
                   _EPWM2_Initialize
                 _EUSART1_Initialize
               _INTERRUPT_Initialize
              _OSCILLATOR_Initialize
             _PIN_MANAGER_Initialize
                    _TMR0_Initialize
                    _TMR1_Initialize
                    _TMR2_Initialize
 ---------------------------------------------------------------------------------
 (2) _TMR2_Initialize                                      0     0      0       0
 ---------------------------------------------------------------------------------
 (2) _TMR1_Initialize                                      0     0      0       0
 ---------------------------------------------------------------------------------
 (2) _TMR0_Initialize                                      2     2      0       0
                                              2 COMRAM     2     2      0
 ---------------------------------------------------------------------------------
 (2) _PIN_MANAGER_Initialize                               0     0      0      98
          _IOCB4_SetInterruptHandler
 ---------------------------------------------------------------------------------
 (3) _IOCB4_SetInterruptHandler                            2     0      2      98
                                              2 COMRAM     2     0      2
 ---------------------------------------------------------------------------------
 (2) _OSCILLATOR_Initialize                                0     0      0       0
 ---------------------------------------------------------------------------------
 (2) _INTERRUPT_Initialize                                 0     0      0       0
 ---------------------------------------------------------------------------------
 (2) _EUSART1_Initialize                                   0     0      0     294
            _EUSART1_SetErrorHandler
     _EUSART1_SetFramingErrorHandler
     _EUSART1_SetOverrunErrorHandler
 ---------------------------------------------------------------------------------
 (3) _EUSART1_SetOverrunErrorHandler                       2     0      2      98
                                              2 COMRAM     2     0      2
 ---------------------------------------------------------------------------------
 (3) _EUSART1_SetFramingErrorHandler                       2     0      2      98
                                              2 COMRAM     2     0      2
 ---------------------------------------------------------------------------------
 (3) _EUSART1_SetErrorHandler                              2     0      2      98
                                              2 COMRAM     2     0      2
 ---------------------------------------------------------------------------------
 (2) _EPWM2_Initialize                                     0     0      0       0
 ---------------------------------------------------------------------------------
 (2) _EPWM1_Initialize                                     0     0      0       0
 ---------------------------------------------------------------------------------
 (1) _EUSART1_is_rx_ready                                  0     0      0       0
 ---------------------------------------------------------------------------------
 (1) _EUSART1_Read                                         0     0      0       0
 ---------------------------------------------------------------------------------
 (1) _EPWM2_LoadDutyValue                                  4     2      2     196
                                              2 COMRAM     4     2      2
 ---------------------------------------------------------------------------------
 (1) _EPWM1_LoadDutyValue                                  4     2      2     196
                                              2 COMRAM     4     2      2
 ---------------------------------------------------------------------------------
 Estimated maximum stack depth 9
 ---------------------------------------------------------------------------------
 (Depth) Function   	        Calls       Base Space   Used Autos Params    Refs
 ---------------------------------------------------------------------------------
 (10) _INTERRUPT_InterruptManager                          2     2      0       0
                                              0 COMRAM     2     2      0
                    _PIN_MANAGER_IOC
 ---------------------------------------------------------------------------------
 (11) _PIN_MANAGER_IOC                                     0     0      0       0
                          _IOCB4_ISR
 ---------------------------------------------------------------------------------
 (12) _IOCB4_ISR                                           0     0      0       0
                   Absolute function *
      _IOCB4_DefaultInterruptHandler *
 ---------------------------------------------------------------------------------
 (13) _IOCB4_DefaultInterruptHandler                       0     0      0       0
 ---------------------------------------------------------------------------------
 (13) Absolute function(Fake)                              0     0      0       0
 ---------------------------------------------------------------------------------
 Estimated maximum stack depth 13
 ---------------------------------------------------------------------------------

 Call Graph Graphs:

 _main (ROOT)
   _EPWM1_LoadDutyValue
   _EPWM2_LoadDutyValue
   _EUSART1_Read
   _EUSART1_is_rx_ready
   _SYSTEM_Initialize
     _EPWM1_Initialize
     _EPWM2_Initialize
     _EUSART1_Initialize
       _EUSART1_SetErrorHandler
       _EUSART1_SetFramingErrorHandler
       _EUSART1_SetOverrunErrorHandler
     _INTERRUPT_Initialize
     _OSCILLATOR_Initialize
     _PIN_MANAGER_Initialize
       _IOCB4_SetInterruptHandler
     _TMR0_Initialize
     _TMR1_Initialize
     _TMR2_Initialize
   _TMR0_WriteTimer
   _printf
     _vfprintf
       _vfpfcnvrt
         _ctoa
           _pad
             _fputc
               _putch
                 _EUSART1_Write
             _fputs
               _fputc
                 _putch
                   _EUSART1_Write
             _strlen
         _fputc
           _putch
             _EUSART1_Write
         _utoa
           ___lodiv
           ___lomod
           _pad
             _fputc
               _putch
                 _EUSART1_Write
             _fputs
               _fputc
                 _putch
                   _EUSART1_Write
             _strlen

 _INTERRUPT_InterruptManager (ROOT)
   _PIN_MANAGER_IOC
     _IOCB4_ISR
       Absolute function(Fake) *
       _IOCB4_DefaultInterruptHandler *

 Address spaces:
Name               Size   Autos  Total    Cost      Usage
BIGRAM             F37      0       0      37        0.0%
EEDATA             400      0       0       0        0.0%
BITBANK14          100      0       0      33        0.0%
BANK14             100      0       0      34        0.0%
BITBANK13          100      0       0      31        0.0%
BANK13             100      0       0      32        0.0%
BITBANK12          100      0       0      29        0.0%
BANK12             100      0       0      30        0.0%
BITBANK11          100      0       0      27        0.0%
BANK11             100      0       0      28        0.0%
BITBANK10          100      0       0      25        0.0%
BANK10             100      0       0      26        0.0%
BITBANK9           100      0       0      23        0.0%
BANK9              100      0       0      24        0.0%
BITBANK8           100      0       0      21        0.0%
BANK8              100      0       0      22        0.0%
BITBANK7           100      0       0      19        0.0%
BANK7              100      0       0      20        0.0%
BITBANK6           100      0       0      17        0.0%
BANK6              100      0       0      18        0.0%
BITBANK5           100      0       0      15        0.0%
BANK5              100      0       0      16        0.0%
BITBANK4           100      0       0      13        0.0%
BANK4              100      0       0      14        0.0%
BITBANK3           100      0       0      10        0.0%
BANK3              100      0       0      11        0.0%
BITBANK2           100      0       0       8        0.0%
BANK2              100      0       0       9        0.0%
BITBANK1           100      0       0       6        0.0%
BANK1              100      0       0       7        0.0%
BITBANK0            A0      0       0       4        0.0%
BANK0               A0      D      4C       5       47.5%
BITCOMRAM           5E      0       0       0        0.0%
COMRAM              5E     5A      5C       1       97.9%
BITBANK15           38      0       0      35        0.0%
BANK15              38      0       0      36        0.0%
BITSFR_1             0      0       0     200        0.0%
SFR_1                0      0       0     200        0.0%
BITSFR               0      0       0     200        0.0%
SFR                  0      0       0     200        0.0%
STACK                0      0       0       2        0.0%
NULL                 0      0       0       0        0.0%
ABS                  0      0      A8      12        0.0%
DATA                 0      0      A8       3        0.0%
CODE                 0      0       0       0        0.0%


Microchip Technology PIC18 Macro Assembler V2.10 build 88905656 
Symbol Table                                                                                   Sun Apr 19 10:56:01 2020

                  __size_of_EPWM2_LoadDutyValue 0030                                               _i 006A  
                                             _j 0068                                              l13 0DE8  
                                            l52 0C3C                                              l72 0C0C  
                                            l49 0D48                                              l69 0D28  
            __size_of_IOCB4_SetInterruptHandler 000A                                 _timer0ReloadVal 005B  
                    ?_IOCB4_SetInterruptHandler 0003                                    __CFG_CP0$OFF 000000  
                                  __CFG_CP1$OFF 000000                                    __CFG_CP2$OFF 000000  
                                  __CFG_CP3$OFF 000000                                     __CFG_LVP$ON 000000  
                                           l201 0D80                                             l123 0DDA  
                                           l115 0B68                                             l132 0C6C  
                                           l142 0DB0                                             l136 0C94  
                                           l160 0E1A                                             l401 0172  
                                           l306 0D64                                             l163 0E10  
                                           l139 0D9E                                             l148 0DF2  
                                           l341 0E28                                             l421 01FE  
                                           l166 0E24                                             l238 0BA6  
                                           l422 0200                                             l431 0252  
                                           l423 020E                                             l512 0508  
                                           l520 0A8A                                             l249 0E06  
                                           l433 0260                                             l426 021C  
                                           l267 0D08                                             l195 0CE2  
                                           l507 070A                                             l198 0D72  
                                           l279 0DFC                                             l519 0A82  
                                           l480 0912                                             l483 0954  
                                           l492 0AE4                                             l485 0990  
                                           l497 0542                                             l499 054A  
                                           l961 07DA                                             l971 08AA  
                                           l968 07FA                                             l978 08CA  
                                  __CFG_CPB$OFF 000000                                             _PR2 000FBB  
                                           u600 0A14                                             u601 0A10  
                                           u610 0B28                                    __CFG_CPD$OFF 000000  
                                           u611 0B24                                             u620 0BD0  
                                           u700 07A0                                             u621 0BCC  
                                           u701 079C                                             u630 08DC  
                                           u710 081A                                             u631 08D8  
                                           u711 0816                                             u560 0DAC  
                                           u640 08FE                                             u720 0844  
                                           u800 06D2                                             u561 0DA8  
                                           u641 08FA                                             u721 0840  
                                           u801 06CE                                             u570 09A4  
                                           u650 0954                                             u730 0872  
                                           u810 06E2                                             u571 09A0  
                                           u651 0950                                             u731 086E  
                                           u811 06DE                                             u900 0DD8  
                                           u580 09B6                                             u660 0964  
                                           u740 0AA0                                             u820 0322  
                                           u901 0DD2                                             u581 09B2  
                                           u661 0960                                             u741 0A9C  
                                           u821 031E                                             u910 0C7A  
                                           u590 09DE                                             u750 051A  
                                           u830 036C                                             u911 0C76  
                                           u591 09DA                                             u671 0712  
                                           u751 0516                                             u831 0368  
                                           u920 0C8E                                             u680 0736  
                                           u760 0536                                             u840 03E0  
                                           u921 0C8A                                             u681 0732  
                                           u761 0532                                             u841 03DC  
                                           u906 0DDA                                             u690 0760  
                                           u770 0680                                             u850 0488  
                                           u691 075C                                             u771 067C  
                                           u851 0484                                             u860 0D80  
                                           u780 069E                                             u861 0D7C  
                                           u781 069A                                             u790 06B8  
                                           u791 06B4                                             u890 0A82  
                                           u891 0A7E                                 _timer1ReloadVal 0072  
                                           _end 006C                                             _pad 08CC  
                               _TMR2_Initialize 0DDC                                             tosl 000FFD  
                                           wreg 000FE8                                      _TXSTA1bits 000FAC  
                      __end_of_EPWM2_Initialize 0D2A                              __size_of_IOCB4_ISR 002E  
                                          l2011 0D2A                                            l2013 0D0A  
                                          l2021 0B56                                            l2005 0DDC  
                                          l2101 0CDA                                            l1221 0CBC  
                                          l1206 0A26                                            l1214 0B28  
                                          l2023 0B62                                            l2015 0B2A  
                                          l2031 0B96                                            l2007 0DDE  
                                          l2103 0CDE                                            l2017 0B3E  
                                          l2025 0E26                                            l2033 0B98  
                                          l2041 0D56                                            l2009 0DE2  
                                          l2121 0DF8                                            l2019 0B4A  
                                          l2035 0BA4                                            l2027 0B6A  
                                          l2051 0D02                                            l2043 0D5E  
                                          l1227 0BDC                                            l2037 0D66  
                                          l2029 0B94                                            l2053 0D04  
                                          l2045 0CE4                                            l2061 0A30  
                                          l2071 0DC8                                            l2047 0CE8  
                                          l2039 0D4A                                            l2119 0DF4  
                                          l2063 0A3E                                            l2311 0042  
                                          l2081 0C8E                                            l2049 0CEC  
                                          l2065 0A64                                            l2137 0C96  
                                          l2401 024A                                            l2321 0062  
                                          l2313 0048                                            l2067 0C0E  
                                          l2083 0C92                                            l2075 0C6C  
                                          l2091 0CC6                                            l2059 0A28  
                                          l2139 0CA0                                            l2411 0274  
                                          l2331 009C                                            l2323 0070  
                                          l2315 004C                                            l2069 0BDE  
                                          l2077 0C7A                                            l2093 0CCA  
                                          l2413 028A                                            l2341 014E  
                                          l2421 02A6                                            l2333 009E  
                                          l2325 007E                                            l2317 004E  
                                          l2079 0C80                                            l2095 0CCE  
                                          l2087 0CBE                                            l2407 0254  
                                          l2351 0162                                            l2335 00B2  
                                          l2327 008C                                            l2319 0058  
                                          l2097 0CD2                                            l2089 0CC2  
                                          l1801 0D9E                                            l2417 0290  
                                          l2409 026E                                            l2361 0188  
                                          l2353 0178                                            l2337 00BE  
                                          l2329 009A                                            l2099 0CD6  
                                          l1803 0DAC                                            l1811 09B6  
                                          l2371 01B6                                            l2363 018C  
                                          l2347 0152                                            l2339 013E  
                                          l1805 0DEC                                            l1813 09C0  
                                          l1821 0AE6                                            l1901 0AA0  
                                          l2381 01D0                                            l2373 01C6  
                                          l2365 01A0                                            l2349 015E  
                                          l1815 09DE                                            l1807 0992  
                                          l1823 0AF2                                            l1831 0BB4  
                                          l1903 0AAC                                            l2391 0202  
                                          l2383 01D2                                            l2375 01CA  
                                          l2367 01B0                                            l2359 017C  
                                          l1817 0A14                                            l1809 09A4  
                                          l1825 0B04                                            l1833 0BB8  
                                          l1841 08DC                                            l1905 0AB8  
                                          l1921 0572                                            l1913 050A  
                                          l2393 021E                                            l2385 01D4  
                                          l2377 01CC                                            l2369 01B4  
                                          l1827 0B08                                            l1835 0BD0  
                                          l1851 0932                                            l1843 08F0  
                                          l1907 0ABC                                            l1931 0604  
                                          l1923 057A                                            l1915 051A  
                                          l2459 02BA                                            l2395 0238  
                                          l2387 01E0                                            l2379 01CE  
                                          l1829 0BA8                                            l1853 0936  
                                          l1845 08FE                                            l1909 0AC0  
                                          l1861 070C                                            l1941 06B8  
                                          l1933 060A                                            l1925 0582  
                                          l1917 051C                                            l2397 0244  
                                          l2389 01EC                                            l1951 0E08  
                                          l1855 0964                                            l1847 090A  
                                          l1839 08CC                                            l1871 0760  
                                          l1863 0718                                            l1943 06D2  
                                          l1927 0588                                            l1935 066E  
                                          l1919 0536                                            l1953 0E1C  
                                          l1857 0978                                            l1849 091E  
                                          l1881 07D4                                            l1873 0772  
                                          l1865 0736                                            l1937 0680  
                                          l1945 06E2                                            l1929 05FE  
                                          l1961 0330                                            l1955 0DFE  
                                          l1875 07A0                                            l1867 073E  
                                          l1891 0844                                            l1883 07FC  
                                          l1939 069E                                            l1963 0342  
                                          l1949 0E12                                            l1877 07C0  
                                          l1869 0752                                            l1893 0872  
                                          l1885 081A                                            l1981 0462  
                                          l1973 03BA                                            l1965 0346  
                                          l1957 02FC                                            ?_pad 0015  
                                          l1879 07C2                                            l1895 0892  
                                          l1887 0822                                            l1983 0488  
                                          l1991 04B6                                            l1975 03E0  
                                          l1967 036C                                            l1959 0322  
                                          l1897 08A4                                            l1889 0836  
                                          l1993 04C4                                            l1985 0496  
                                          l1977 042A                                            l1969 039E  
                                          l1899 0A8C                                            l1987 04AA  
                                          l1997 04D0                                            l1999 04F6  
                                          STR_1 FF8F                                            STR_2 FED8  
                                          STR_3 FEBE                                            STR_4 FFFA  
                                          STR_5 FE6D                                            STR_6 FFD7  
                                          STR_7 FFF3                                            STR_8 FF50  
                                          STR_9 FEF2                                            u1100 026E  
                                          u1101 026A                                            u1110 028A  
                                          u1111 0286                                            u1050 00B2  
                                          u1051 00AE                                            u1060 0172  
                                          u1061 016E                                            u1070 019C  
                                          u1071 0198                                            u1080 01B0  
                                          u1081 01AC                                            u1090 021C  
                                          u1091 0218                                            _LATA 000F89  
                                          _LATB 000F8A                                            _LATC 000F8B  
                                          _TMR1 000FCE                                            _TMR2 000FBC  
                                          _WPUB 000F61                                   _EUSART1_Write 0D9C  
                                          _dbuf 007D                                            _ctoa 0A8C  
                                          _main 0042                                   ?_EUSART1_Read 0001  
                                          _prec 0064                                            _nout 0060  
                                          pad@i 001C                                            pad@p 0019  
                                          fsr1h 000FE2                                            fsr2h 000FDA  
                                          indf2 000FDF                                            fsr1l 000FE1  
                                          pad@w 001E                                            fsr2l 000FD9  
                                          btemp 005D                                            _utoa 050A  
                                 __CFG_BORV$190 000000                                            start 003E  
                                 __CFG_IESO$OFF 000000                           ??_EPWM1_LoadDutyValue 0005  
                                  ___param_bank 000000                                           ??_pad 001B  
                       __end_of_TMR0_Initialize 0D0A                  __size_of_OSCILLATOR_Initialize 001C  
                 __end_of_OSCILLATOR_Initialize 0D82                                           ?_ctoa 0020  
                                         ?_main 0001                                           STR_10 FF7B  
                                         STR_11 FEA1                                           STR_20 FF23  
                                         STR_12 FF0B                                           STR_13 FE6D  
                                         STR_21 FFA3                                           STR_14 FFE6  
                                         STR_22 FFB6                                           STR_15 FED6  
                                         STR_16 FED6                                           STR_17 FF3A  
                                         STR_18 FF66                                           STR_19 FFC7  
             __end_of_IOCB4_SetInterruptHandler 0E08                                           ?_utoa 0020  
                                         _T0CON 000FD5                                 __end_of___lodiv 07FC  
                                         _T1CON 000FCD                                           _T2CON 000FBA  
                               __end_of___lomod 08CC                                  __CFG_DEBUG$OFF 000000  
                                         i2l242 0DC6                                           i2l252 0E2A  
                               _TMR0_WriteTimer 0DF4                                           i2l246 0C6A  
                                         i2l348 0032                                    vfpfcnvrt@fmt 0042  
                                         _TMR0H 000FD7                                    vfpfcnvrt@llu 004A  
                                         _TMR1H 000FCF                                           _TMR0L 000FD6  
                                         _TMR1L 000FCE                                           _TRISA 000F92  
                                         _TRISB 000F93                                           _TRISC 000F94  
                                 __CFG_WRT0$OFF 000000                                   __CFG_WRT1$OFF 000000  
                                 __CFG_WRT2$OFF 000000                                   __CFG_WRT3$OFF 000000  
                                __CFG_EBTR0$OFF 000000                                  __CFG_FCMEN$OFF 000000  
                                __CFG_EBTR1$OFF 000000                                  __CFG_EBTR2$OFF 000000  
                                __CFG_EBTR3$OFF 000000                                   __CFG_WRTB$OFF 000000  
                                 __CFG_WRTC$OFF 000000                                   __CFG_WRTD$OFF 000000  
                                __CFG_EBTRB$OFF 000000                         __end_of_PIN_MANAGER_IOC 0DC8  
                                         _flags 0066                                           _fputc 0992  
                                         _fputs 0AE6                              __CFG_MCLRE$EXTMCLR 000000  
                                         pad@fp 0015                                           _width 0062  
                                         ctoa@c 0022                                           _putch 0DEA  
                                         _start 006E                                           ctoa@w 0023  
                                         main@i 00A9                                  ?_EUSART1_Write 0001  
                       __end_of_TMR1_Initialize 0D66                                           pclath 000FFA  
                                         tablat 000FF5                                  ??_EUSART1_Read 0003  
                                         ttemp5 005E                                           ttemp6 0061  
                                         ttemp7 0065                                           utoa@d 0022  
                                         utoa@i 003E                                           utoa@n 0036  
                                         utoa@p 0032                                           utoa@w 0034  
                                         status 000FD8                                           wtemp8 005E  
                                __CFG_HFOFST$ON 000000                                ___lodiv@dividend 0003  
            _EUSART1_DefaultFramingErrorHandler 000000                                  __CFG_PBADEN$ON 000000  
               ??_IOCB4_DefaultInterruptHandler 0001                                 __initialization 0D82  
                                  __end_of_ctoa 0AE6                      __end_of_EUSART1_Initialize 0B6A  
                                  __end_of_main 02FC                                    __end_of_utoa 070C  
                             __end_of_IOCB4_ISR 0C6C                         __end_of_TMR2_Initialize 0DEA  
                   ?_INTERRUPT_InterruptManager 0001                                          ??_ctoa 0023  
                                        ??_main 00A5                                          ??_utoa 002A  
                                 __activetblptr 000003                                ___lodiv@quotient 0013  
                                        ?_fputc 0005                                          ?_fputs 000E  
                                        _CCPR1H 000FBF                                          _CCPR2H 000F68  
                                        _CCPR1L 000FBE                                          _CCPR2L 000F67  
                                        _ANSELA 000F38                                          ?_putch 0001  
                                        _ANSELB 000F39                                          _ANSELC 000F3A  
                                        _T1GCON 000FCC                    __size_of_EUSART1_is_rx_ready 0014  
                                        i2l2105 0DB2                                          i2l2107 0DC0  
                                        i2l2109 0DC4                                          i2l2055 0C3E  
                                        i2l2151 0020                                          i2l2057 0C52  
                                        i2l2153 002E                                          i2l2149 0012  
                                __CFG_WDTEN$OFF 000000                                          _RCREG1 000FAE  
                                        _RCSTA1 000FAB                                          _OSCCON 000FD3  
                                        _PLLRDY 007E97                                          _SPBRG1 000FAF  
                                        _TXREG1 000FAD                                          _TXSTA1 000FAC  
                                __CFG_XINST$OFF 000000                                    _CCPTMRS0bits 000F49  
                                  vfprintf@cfmt 0059                                  __CFG_STVREN$ON 000000  
                       __end_of_TMR0_WriteTimer 0DFE                                       ??___lodiv 0013  
                                     ??___lomod 0013                        ?_EUSART1_SetErrorHandler 0003  
                              ?_TMR0_Initialize 0001                                          clear_0 0D88  
                                        _printf 0C96                                          pad@buf 0017  
              ??_EUSART1_SetOverrunErrorHandler 0005                 ?_EUSART1_SetOverrunErrorHandler 0003  
                                        ctoa@fp 0020                                          _strlen 0BA8  
                                        fputc@c 0005                                          fputs@c 0012  
                                        fputs@i 0013                                          fputs@s 000E  
                                  __mediumconst FE6C                                          tblptrh 000FF7  
                                        tblptrl 000FF6                                          tblptru 000FF8  
                              __end_of_vfprintf 0A8C                                 ??_EUSART1_Write 0003  
                           _EPWM2_LoadDutyValue 0BDE                                          utoa@fp 0020  
     IOCB4_SetInterruptHandler@InterruptHandler 0003                                ?_PIN_MANAGER_IOC 0001  
                 __size_of_INTERRUPT_Initialize 0004                                ?_TMR1_Initialize 0001  
                             _SYSTEM_Initialize 0CBE                                      __accesstop 0060  
                       __end_of__initialization 0D92                              ?_SYSTEM_Initialize 0001  
                                 ___rparam_used 000001                               ?_EPWM1_Initialize 0001  
                                __pcstackCOMRAM 0001                            ?_EPWM2_LoadDutyValue 0003  
                           ??_SYSTEM_Initialize 0005                              ??_EPWM1_Initialize 0003  
                                 __end_of_fputc 0A28                                   __end_of_fputs 0B2A  
         __end_of_IOCB4_DefaultInterruptHandler 0E2C          __size_of_IOCB4_DefaultInterruptHandler 0002  
                 _IOCB4_DefaultInterruptHandler 0E2A                                   __end_of_putch 0DF4  
                              ?_TMR2_Initialize 0001                     ??_IOCB4_SetInterruptHandler 0005  
                          __end_of_EUSART1_Read 0C96                               ?_EPWM2_Initialize 0001  
                                       ??_fputc 0009                       __end_of_SYSTEM_Initialize 0CE4  
                                       ??_fputs 0012                              ??_EPWM2_Initialize 0003  
                                       ??_putch 0004                                      __pbssBANK0 0060  
                               __CFG_PLLCFG$OFF 000000                 __end_of_EUSART1_SetErrorHandler 0E26  
                            __CFG_CCP2MX$PORTC1 000000                           ??_EPWM2_LoadDutyValue 0005  
                            __CFG_CCP3MX$PORTB5 000000                                ?_TMR0_WriteTimer 0003  
                                       _CCP1CON 000FBD                                         _CCP2CON 000F66  
                                       _ECCP1AS 000FB6                                         _ECCP2AS 000F64  
                                       ?_printf 009D                                         ?_strlen 0003  
        __end_of_EUSART1_SetFramingErrorHandler 0E1C         __size_of_EUSART1_SetFramingErrorHandler 000A  
                _EUSART1_SetFramingErrorHandler 0E12                                         _OSCCON2 000FD2  
                            __size_of_vfpfcnvrt 020E                                         _OSCTUNE 000F9B  
                                       _PWM1CON 000FB7                                         _PWM2CON 000F65  
                                       _SPBRGH1 000FB0                                         i2u93_40 0DC0  
                                       i2u93_41 0DBC                                         i2u87_40 0C52  
                                       i2u95_40 0020                                         i2u87_41 0C4E  
                                       i2u95_41 001C                                         i2u96_40 002E  
                                       i2u96_41 002A                                         i2u88_48 0C58  
                                       i2u88_49 0C6A                                ___lomod@dividend 0003  
                   __end_of_EPWM1_LoadDutyValue 0C3E                       _IOCB4_SetInterruptHandler 0DFE  
                               __CFG_PWRTEN$OFF 000000                                         __Hparam 0000  
                                       __Lparam 0000                                         ___lodiv 070C  
                                       ___lomod 07FC                                       ?_vfprintf 0053  
                           _EUSART1_is_rx_ready 0DC8                                         __pcinit 0D82  
                                       __ramtop 1000                                         __ptext0 0042  
                                       __ptext1 0C96                                         __ptext2 0A28  
                                       __ptext3 02FC                                         __ptext4 050A  
                                       __ptext5 07FC                                         __ptext6 070C  
                                       __ptext7 0A8C                                         __ptext8 08CC  
                                       __ptext9 0BA8                                 __size_of_printf 0028  
                                     _T0CONbits 000FD5                                       _IOCB4_ISR 0C3E  
                               __size_of_strlen 0036                                       _T1CONbits 000FCD  
                         _OSCILLATOR_Initialize 0D66                                       _T2CONbits 000FBA  
                                  __size_of_pad 00C6                              _EUSART1_Initialize 0B2A  
                      ??_PIN_MANAGER_Initialize 0005                                         main@cmd 00A8  
                    __size_of_SYSTEM_Initialize 0026                            end_of_initialization 0D92  
                          ?_EUSART1_is_rx_ready 0001                             ?_EUSART1_Initialize 0001  
                                       fputc@fp 0007                     _EUSART1_OverrunErrorHandler 0076  
                                       fputs@fp 0010                               __end_of_vfpfcnvrt 050A  
                                       postdec2 000FDD                                         postinc0 000FEE  
                                       postinc1 000FE6                                         postinc2 000FDE  
                         __size_of_EUSART1_Read 002A                                      ??_vfprintf 0059  
                          ??_EUSART1_Initialize 0005                                         strlen@a 0005  
                                       strlen@s 0003                                       _PORTBbits 000F81  
                                    ?_IOCB4_ISR 0001                __size_of_EUSART1_SetErrorHandler 000A  
                           EUSART1_Write@txData 0003                           ??_EUSART1_is_rx_ready 0003  
                                  _EUSART1_Read 0C6C                    __end_of_INTERRUPT_Initialize 0E2A  
                                   vfpfcnvrt@ap 0044                                     vfpfcnvrt@fp 0040  
                        ?_OSCILLATOR_Initialize 0001                                  __end_of_printf 0CBE  
                                __end_of_strlen 0BDE                             start_initialization 0D82  
                               ___lodiv@divisor 000B                       __size_of_EPWM1_Initialize 0020  
                               ___lodiv@counter 001B                               main@motorsToggled 00A7  
                      __size_of_TMR0_Initialize 0026                 __size_of_PIN_MANAGER_Initialize 003E  
                                   __end_of_pad 0992                                     putch@txData 0004  
                  EPWM1_LoadDutyValue@dutyValue 0003                           __end_of_EUSART1_Write 0DB2  
                      __size_of_PIN_MANAGER_IOC 0016                       __size_of_EPWM2_Initialize 0020  
                      __size_of_TMR1_Initialize 001C                                     vfprintf@fmt 0055  
                                 _echo_received 007A                                        ??_printf 005B  
                                      ??_strlen 0005                                     ??_IOCB4_ISR 0001  
                                   __pbssCOMRAM 005B                                   __pcstackBANK0 009D  
                      __size_of_TMR2_Initialize 000E                ??_EUSART1_SetFramingErrorHandler 0005  
               ?_EUSART1_SetFramingErrorHandler 0003                     __end_of_EPWM2_LoadDutyValue 0C0E  
                                     __pnvBANK0 00AA                          _PIN_MANAGER_Initialize 0B6A  
                                     __pintcode 0008                                   __pmediumconst FE6C  
                                      ?___lodiv 0003                                        ?___lomod 0003  
                  ??_INTERRUPT_InterruptManager 0001                                __CFG_PRICLKEN$ON 000000  
                             __size_of_vfprintf 0064                                 ___lomod@divisor 000B  
                               ___lomod@counter 0013                                        _BAUDCON1 000FB8  
            _EUSART1_DefaultOverrunErrorHandler 000000                        __size_of_TMR0_WriteTimer 000A  
                          _EUSART1_ErrorHandler 0074                         _EUSART1_SetErrorHandler 0E1C  
                                __size_of_fputc 0096                                  __size_of_fputs 0044  
                                __size_of_putch 000A                            _INTERRUPT_Initialize 0E26  
                             ??_TMR0_Initialize 0003                                        _IOCBbits 000F62  
                                      _LATAbits 000F89         EUSART1_SetErrorHandler@interruptHandler 0003  
                                      _LATBbits 000F8A             __size_of_INTERRUPT_InterruptManager 0036  
                                      _PIR1bits 000F9E                    __size_of_EPWM1_LoadDutyValue 0030  
                                      _RCONbits 000FD0                                __CFG_WDTPS$32768 000000  
                                      _PSTR1CON 000FB9                                        _PSTR2CON 000F63  
                             ??_PIN_MANAGER_IOC 0001                                       _vfpfcnvrt 02FC  
                             ??_TMR1_Initialize 0003                                _EPWM1_Initialize 0D2A  
                                    vfpfcnvrt@c 0052                                     _INTCON2bits 000FF1  
                         ?_INTERRUPT_Initialize 0001                               ??_TMR2_Initialize 0003  
                                      __Hrparam 0000                                _EPWM2_Initialize 0D0A  
                                    vfprintf@ap 0057                                        __Lrparam 0000  
                                    vfprintf@fp 0053                              __CFG_BOREN$SBORDIS 000000  
                             __CFG_P2BMX$PORTB5 000000                         ??_OSCILLATOR_Initialize 0003  
                              __size_of___lodiv 00F0                     __size_of_EUSART1_Initialize 0040  
                              __size_of___lomod 00D0                                      ?_vfpfcnvrt 0040  
                        _IOCB4_InterruptHandler 00AA                                    _TMR0ISRstate 007B  
                     ??_EUSART1_SetErrorHandler 0005                     _EUSART1_DefaultErrorHandler 000000  
                   __end_of_EUSART1_is_rx_ready 0DDC                fp__IOCB4_DefaultInterruptHandler 0000  
                ?_IOCB4_DefaultInterruptHandler 0001                                        __ptext10 0AE6  
                                      __ptext11 0992                                        __ptext20 0DFE  
                                      __ptext12 0DEA                                        __ptext21 0D66  
                                      __ptext13 0D9C                                      _T1GCONbits 000FCC  
                                      __ptext30 0C6C                                        __ptext22 0E26  
                                      __ptext14 0DF4                                        __ptext31 0BDE  
                                      __ptext23 0B2A                                        __ptext15 0CBE  
                                      __ptext32 0C0E                                        __ptext24 0E08  
                                      __ptext16 0DDC                                        __ptext25 0E12  
                                      __ptext17 0D4A                                        __ptext34 0DB2  
                                      __ptext26 0E1C                                        __ptext18 0CE4  
                                      __ptext35 0C3E                                        __ptext27 0D0A  
                                      __ptext19 0B6A                                        __ptext36 0E2A  
                                      __ptext28 0D2A                                        __ptext37 0000  
                                      __ptext29 0DC8                                        _distance 0070  
                       TMR0_WriteTimer@timerVal 0003                               ??_TMR0_WriteTimer 0005  
                                 __size_of_ctoa 005A                                   __size_of_main 02BA  
                                 __size_of_utoa 0202  EUSART1_SetOverrunErrorHandler@interruptHandler 0003  
                                      int$flags 005D                                        _vfprintf 0A28  
            __end_of_INTERRUPT_InterruptManager 003E                      _INTERRUPT_InterruptManager 0008  
                                     printf@fmt 009D                     _EUSART1_FramingErrorHandler 0078  
                                    _INTCONbits 000FF2                          ??_INTERRUPT_Initialize 0003  
                                      intlevel2 0000                    EPWM2_LoadDutyValue@dutyValue 0003  
                       ?_PIN_MANAGER_Initialize 0001          __end_of_EUSART1_SetOverrunErrorHandler 0E12  
       __size_of_EUSART1_SetOverrunErrorHandler 000A                  _EUSART1_SetOverrunErrorHandler 0E08  
                                    _RCSTA1bits 000FAB                                        printf@ap 00A3  
EUSART1_SetFramingErrorHandler@interruptHandler 0003                                     ??_vfpfcnvrt 0046  
                        __size_of_EUSART1_Write 0016                              _eusart1RxLastError 007C  
                               _TMR0_Initialize 0CE4                               __CFG_T3CMX$PORTC0 000000  
                           _EPWM1_LoadDutyValue 0C0E                  __end_of_PIN_MANAGER_Initialize 0BA8  
                             __CFG_FOSC$INTIO67 000000                                 _PIN_MANAGER_IOC 0DB2  
                               _TMR1_Initialize 0D4A                        __end_of_EPWM1_Initialize 0D4A  
                          ?_EPWM1_LoadDutyValue 0003  
