

Microchip MPLAB XC8 Assembler V2.10 build 88905656 
                                                                                               Wed Apr 15 19:46:13 2020

Microchip MPLAB XC8 C Compiler v2.10 (Free license) build 20190730164152 Og1 
     1                           	processor	18F26K22
     2                           	fnconf	rparam,??,?,0
     3                           	opt	pw 120
     4                           	opt	flic
     5                           	psect	nvCOMRAM,global,class=COMRAM,space=1,delta=1,noexec
     6                           	psect	smallconst,global,reloc=2,class=SMALLCONST,delta=1,noexec
     7                           	psect	cinit,global,reloc=2,class=CODE,delta=1
     8                           	psect	bssCOMRAM,global,class=COMRAM,space=1,delta=1,noexec
     9                           	psect	bssBANK0,global,class=BANK0,space=1,delta=1,lowdata,noexec
    10                           	psect	cstackCOMRAM,global,class=COMRAM,space=1,delta=1,noexec
    11                           	psect	text0,global,reloc=2,class=CODE,delta=1
    12                           	psect	text1,global,reloc=2,class=CODE,delta=1,group=2
    13                           	psect	text2,global,reloc=2,class=CODE,delta=1
    14                           	psect	text3,global,reloc=2,class=CODE,delta=1
    15                           	psect	text4,global,reloc=2,class=CODE,delta=1
    16                           	psect	text5,global,reloc=2,class=CODE,delta=1
    17                           	psect	text6,global,reloc=2,class=CODE,delta=1,group=2
    18                           	psect	text7,global,reloc=2,class=CODE,delta=1,group=2
    19                           	psect	text8,global,reloc=2,class=CODE,delta=1,group=2
    20                           	psect	text9,global,reloc=2,class=CODE,delta=1
    21                           	psect	text10,global,reloc=2,class=CODE,delta=1
    22                           	psect	text11,global,reloc=2,class=CODE,delta=1
    23                           	psect	text12,global,reloc=2,class=CODE,delta=1
    24                           	psect	text13,global,reloc=2,class=CODE,delta=1
    25                           	psect	text14,global,reloc=2,class=CODE,delta=1
    26                           	psect	text15,global,reloc=2,class=CODE,delta=1
    27                           	psect	text16,global,reloc=2,class=CODE,delta=1
    28                           	psect	text17,global,reloc=2,class=CODE,delta=1
    29                           	psect	text18,global,reloc=2,class=CODE,delta=1
    30                           	psect	text19,global,reloc=2,class=CODE,delta=1
    31                           	psect	text20,global,reloc=2,class=CODE,delta=1
    32                           	psect	text21,global,reloc=2,class=CODE,delta=1
    33                           	psect	text22,global,reloc=2,class=CODE,delta=1
    34                           	psect	text23,global,reloc=2,class=CODE,delta=1
    35                           	psect	text24,global,reloc=2,class=CODE,delta=1
    36                           	psect	intsave_regs,global,class=BIGRAM,space=1,delta=1,noexec
    37                           	psect	rparam,global,class=COMRAM,space=1,delta=1,noexec
    38  0000                     
    39                           ; Version 2.10
    40                           ; Generated 31/07/2019 GMT
    41                           ; 
    42                           ; Copyright © 2019, Microchip Technology Inc. and its subsidiaries ("Microchip")
    43                           ; All rights reserved.
    44                           ; 
    45                           ; This software is developed by Microchip Technology Inc. and its subsidiaries ("Microch
      +                          ip").
    46                           ; 
    47                           ; Redistribution and use in source and binary forms, with or without modification, are
    48                           ; permitted provided that the following conditions are met:
    49                           ; 
    50                           ;     1. Redistributions of source code must retain the above copyright notice, this lis
      +                          t of
    51                           ;        conditions and the following disclaimer.
    52                           ; 
    53                           ;     2. Redistributions in binary form must reproduce the above copyright notice, this 
      +                          list
    54                           ;        of conditions and the following disclaimer in the documentation and/or other
    55                           ;        materials provided with the distribution.
    56                           ; 
    57                           ;     3. Microchip's name may not be used to endorse or promote products derived from th
      +                          is
    58                           ;        software without specific prior written permission.
    59                           ; 
    60                           ; THIS SOFTWARE IS PROVIDED BY MICROCHIP "AS IS" AND ANY EXPRESS OR IMPLIED WARRANTIES,
    61                           ; INCLUDING, BUT NOT LIMITED TO, THE IMPLIED WARRANTIES OF MERCHANTABILITY AND FITNESS F
      +                          OR
    62                           ; PURPOSE ARE DISCLAIMED.  IN NO EVENT SHALL MICROCHIP BE LIABLE FOR ANY DIRECT, INDIREC
      +                          T,
    63                           ; INCIDENTAL, SPECIAL, EXEMPLARY, OR CONSEQUENTIAL DAMAGES (INCLUDING BUT NOT LIMITED TO
    64                           ; PROCUREMENT OF SUBSTITUTE GOODS OR SERVICES; LOSS OF USE, DATA OR PROFITS; OR BUSINESS
    65                           ; INTERRUPTION) HOWSOEVER CAUSED AND ON ANY THEORY OF LIABILITY, WHETHER IN CONTRACT, ST
      +                          RICT
    66                           ; LIABILITY, OR TORT (INCLUDING NEGLIGENCE OR OTHERWISE) ARISING IN ANY WAY OUT OF THE U
      +                          SE OF
    67                           ; THIS SOFTWARE, EVEN IF ADVISED OF THE POSSIBILITY OF SUCH DAMAGE.
    68                           ; 
    69                           ; 
    70                           ; Code-generator required, PIC18F26K22 Definitions
    71                           ; 
    72                           ; SFR Addresses
    73  0000                     
    74 ;; Function _EUSART1_DefaultFramingErrorHandler is unused but had its address taken
    75  0000                     
    76 ;; Function _EUSART1_DefaultOverrunErrorHandler is unused but had its address taken
    77  0000                     
    78 ;; Function _EUSART1_DefaultErrorHandler is unused but had its address taken
    79  0000                     
    80                           	psect	nvCOMRAM
    81  000040                     __pnvCOMRAM:
    82                           	opt callstack 0
    83  000040                     _timer1ReloadVal:
    84                           	opt callstack 0
    85  000040                     	ds	2
    86  000042                     _timer0ReloadVal:
    87                           	opt callstack 0
    88  000042                     	ds	2
    89  000044                     _EUSART1_ErrorHandler:
    90                           	opt callstack 0
    91  000044                     	ds	2
    92  000046                     _EUSART1_OverrunErrorHandler:
    93                           	opt callstack 0
    94  000046                     	ds	2
    95  000048                     _EUSART1_FramingErrorHandler:
    96                           	opt callstack 0
    97  000048                     	ds	2
    98  0000                     _ANSELA	set	3896
    99  0000                     _ANSELB	set	3897
   100  0000                     _ANSELC	set	3898
   101  0000                     _CCPTMRS0bits	set	3913
   102  0000                     _TMR1	set	4046
   103  0000                     _T1GCONbits	set	4044
   104  0000                     _T1CONbits	set	4045
   105  0000                     _T1CON	set	4045
   106  0000                     _TMR1L	set	4046
   107  0000                     _TMR1H	set	4047
   108  0000                     _T1GCON	set	4044
   109  0000                     _T0CON	set	4053
   110  0000                     _TMR0L	set	4054
   111  0000                     _TMR0H	set	4055
   112  0000                     _T0CONbits	set	4053
   113  0000                     _INTCONbits	set	4082
   114  0000                     _INTCON2bits	set	4081
   115  0000                     _WPUB	set	3937
   116  0000                     _TRISC	set	3988
   117  0000                     _TRISB	set	3987
   118  0000                     _TRISA	set	3986
   119  0000                     _LATC	set	3979
   120  0000                     _LATB	set	3978
   121  0000                     _LATA	set	3977
   122  0000                     _OSCTUNE	set	3995
   123  0000                     _OSCCON2	set	4050
   124  0000                     _OSCCON	set	4051
   125  0000                     _TXREG1	set	4013
   126  0000                     _RCREG1	set	4014
   127  0000                     _RCSTA1bits	set	4011
   128  0000                     _TXSTA1bits	set	4012
   129  0000                     _SPBRGH1	set	4016
   130  0000                     _SPBRG1	set	4015
   131  0000                     _TXSTA1	set	4012
   132  0000                     _RCSTA1	set	4011
   133  0000                     _BAUDCON1	set	4024
   134  0000                     _CCPR2L	set	3943
   135  0000                     _CCPR2H	set	3944
   136  0000                     _PSTR2CON	set	3939
   137  0000                     _PWM2CON	set	3941
   138  0000                     _ECCP2AS	set	3940
   139  0000                     _CCP2CON	set	3942
   140  0000                     _CCPR1L	set	4030
   141  0000                     _CCPR1H	set	4031
   142  0000                     _PSTR1CON	set	4025
   143  0000                     _PWM1CON	set	4023
   144  0000                     _ECCP1AS	set	4022
   145  0000                     _CCP1CON	set	4029
   146  0000                     _T2CONbits	set	4026
   147  0000                     _T2CON	set	4026
   148  0000                     _PIR1bits	set	3998
   149  0000                     _TMR2	set	4028
   150  0000                     _PR2	set	4027
   151                           
   152                           	psect	smallconst
   153  001000                     __psmallconst:
   154                           	opt callstack 0
   155  001000  00                 	db	0
   156  001001                     STR_5:
   157  001001  2D                 	db	45
   158  001002  2D                 	db	45
   159  001003  2D                 	db	45
   160  001004  2D                 	db	45
   161  001005  2D                 	db	45
   162  001006  2D                 	db	45
   163  001007  2D                 	db	45
   164  001008  2D                 	db	45
   165  001009  2D                 	db	45
   166  00100A  2D                 	db	45
   167  00100B  2D                 	db	45
   168  00100C  2D                 	db	45
   169  00100D  2D                 	db	45
   170  00100E  2D                 	db	45
   171  00100F  2D                 	db	45
   172  001010  2D                 	db	45
   173  001011  2D                 	db	45
   174  001012  2D                 	db	45
   175  001013  2D                 	db	45
   176  001014  2D                 	db	45
   177  001015  2D                 	db	45
   178  001016  2D                 	db	45
   179  001017  2D                 	db	45
   180  001018  2D                 	db	45
   181  001019  2D                 	db	45
   182  00101A  2D                 	db	45
   183  00101B  2D                 	db	45
   184  00101C  2D                 	db	45
   185  00101D  2D                 	db	45
   186  00101E  2D                 	db	45
   187  00101F  2D                 	db	45
   188  001020  2D                 	db	45
   189  001021  2D                 	db	45
   190  001022  2D                 	db	45
   191  001023  2D                 	db	45
   192  001024  2D                 	db	45
   193  001025  2D                 	db	45
   194  001026  2D                 	db	45
   195  001027  2D                 	db	45
   196  001028  2D                 	db	45
   197  001029  2D                 	db	45
   198  00102A  2D                 	db	45
   199  00102B  2D                 	db	45
   200  00102C  2D                 	db	45
   201  00102D  2D                 	db	45
   202  00102E  2D                 	db	45
   203  00102F  2D                 	db	45
   204  001030  2D                 	db	45
   205  001031  2D                 	db	45
   206  001032  0D                 	db	13
   207  001033  0A                 	db	10
   208  001034  00                 	db	0
   209  001035                     STR_3:
   210  001035  4F                 	db	79	;'O'
   211  001036  62                 	db	98	;'b'
   212  001037  73                 	db	115	;'s'
   213  001038  74                 	db	116	;'t'
   214  001039  61                 	db	97	;'a'
   215  00103A  63                 	db	99	;'c'
   216  00103B  6C                 	db	108	;'l'
   217  00103C  65                 	db	101	;'e'
   218  00103D  2D                 	db	45
   219  00103E  61                 	db	97	;'a'
   220  00103F  76                 	db	118	;'v'
   221  001040  6F                 	db	111	;'o'
   222  001041  69                 	db	105	;'i'
   223  001042  64                 	db	100	;'d'
   224  001043  69                 	db	105	;'i'
   225  001044  6E                 	db	110	;'n'
   226  001045  67                 	db	103	;'g'
   227  001046  20                 	db	32
   228  001047  74                 	db	116	;'t'
   229  001048  61                 	db	97	;'a'
   230  001049  6E                 	db	110	;'n'
   231  00104A  6B                 	db	107	;'k'
   232  00104B  20                 	db	32
   233  00104C  0D                 	db	13
   234  00104D  0A                 	db	10
   235  00104E  00                 	db	0
   236  00104F                     STR_2:
   237  00104F  46                 	db	70	;'F'
   238  001050  69                 	db	105	;'i'
   239  001051  6E                 	db	110	;'n'
   240  001052  61                 	db	97	;'a'
   241  001053  6C                 	db	108	;'l'
   242  001054  20                 	db	32
   243  001055  70                 	db	112	;'p'
   244  001056  72                 	db	114	;'r'
   245  001057  6F                 	db	111	;'o'
   246  001058  6A                 	db	106	;'j'
   247  001059  65                 	db	101	;'e'
   248  00105A  63                 	db	99	;'c'
   249  00105B  74                 	db	116	;'t'
   250  00105C  20                 	db	32
   251  00105D  74                 	db	116	;'t'
   252  00105E  65                 	db	101	;'e'
   253  00105F  72                 	db	114	;'r'
   254  001060  6D                 	db	109	;'m'
   255  001061  69                 	db	105	;'i'
   256  001062  6E                 	db	110	;'n'
   257  001063  61                 	db	97	;'a'
   258  001064  6C                 	db	108	;'l'
   259  001065  20                 	db	32
   260  001066  0D                 	db	13
   261  001067  0A                 	db	10
   262  001068  00                 	db	0
   263  001069                     STR_9:
   264  001069  7A                 	db	122	;'z'
   265  00106A  3A                 	db	58	;':'
   266  00106B  20                 	db	32
   267  00106C  43                 	db	67	;'C'
   268  00106D  6C                 	db	108	;'l'
   269  00106E  65                 	db	101	;'e'
   270  00106F  61                 	db	97	;'a'
   271  001070  72                 	db	114	;'r'
   272  001071  20                 	db	32
   273  001072  74                 	db	116	;'t'
   274  001073  68                 	db	104	;'h'
   275  001074  65                 	db	101	;'e'
   276  001075  20                 	db	32
   277  001076  74                 	db	116	;'t'
   278  001077  65                 	db	101	;'e'
   279  001078  72                 	db	114	;'r'
   280  001079  6D                 	db	109	;'m'
   281  00107A  69                 	db	105	;'i'
   282  00107B  6E                 	db	110	;'n'
   283  00107C  61                 	db	97	;'a'
   284  00107D  6C                 	db	108	;'l'
   285  00107E  2E                 	db	46
   286  00107F  0D                 	db	13
   287  001080  0A                 	db	10
   288  001081  00                 	db	0
   289  001082                     STR_8:
   290  001082  5A                 	db	90	;'Z'
   291  001083  3A                 	db	58	;':'
   292  001084  20                 	db	32
   293  001085  52                 	db	82	;'R'
   294  001086  65                 	db	101	;'e'
   295  001087  73                 	db	115	;'s'
   296  001088  65                 	db	101	;'e'
   297  001089  74                 	db	116	;'t'
   298  00108A  20                 	db	32
   299  00108B  70                 	db	112	;'p'
   300  00108C  72                 	db	114	;'r'
   301  00108D  6F                 	db	111	;'o'
   302  00108E  63                 	db	99	;'c'
   303  00108F  65                 	db	101	;'e'
   304  001090  73                 	db	115	;'s'
   305  001091  73                 	db	115	;'s'
   306  001092  6F                 	db	111	;'o'
   307  001093  72                 	db	114	;'r'
   308  001094  2E                 	db	46
   309  001095  0D                 	db	13
   310  001096  0A                 	db	10
   311  001097  00                 	db	0
   312  001098                     STR_1:
   313  001098  44                 	db	68	;'D'
   314  001099  65                 	db	101	;'e'
   315  00109A  76                 	db	118	;'v'
   316  00109B  65                 	db	101	;'e'
   317  00109C  6C                 	db	108	;'l'
   318  00109D  6F                 	db	111	;'o'
   319  00109E  70                 	db	112	;'p'
   320  00109F  6D                 	db	109	;'m'
   321  0010A0  65                 	db	101	;'e'
   322  0010A1  6E                 	db	110	;'n'
   323  0010A2  74                 	db	116	;'t'
   324  0010A3  20                 	db	32
   325  0010A4  42                 	db	66	;'B'
   326  0010A5  6F                 	db	111	;'o'
   327  0010A6  61                 	db	97	;'a'
   328  0010A7  72                 	db	114	;'r'
   329  0010A8  64                 	db	100	;'d'
   330  0010A9  0D                 	db	13
   331  0010AA  0A                 	db	10
   332  0010AB  00                 	db	0
   333  0010AC                     STR_14:
   334  0010AC  55                 	db	85	;'U'
   335  0010AD  6E                 	db	110	;'n'
   336  0010AE  6B                 	db	107	;'k'
   337  0010AF  6E                 	db	110	;'n'
   338  0010B0  6F                 	db	111	;'o'
   339  0010B1  77                 	db	119	;'w'
   340  0010B2  6E                 	db	110	;'n'
   341  0010B3  20                 	db	32
   342  0010B4  6B                 	db	107	;'k'
   343  0010B5  65                 	db	101	;'e'
   344  0010B6  79                 	db	121	;'y'
   345  0010B7  20                 	db	32
   346  0010B8  25                 	db	37
   347  0010B9  63                 	db	99	;'c'
   348  0010BA  0D                 	db	13
   349  0010BB  0A                 	db	10
   350  0010BC  00                 	db	0
   351  0010BD                     STR_6:
   352  0010BD  3F                 	db	63	;'?'
   353  0010BE  3A                 	db	58	;':'
   354  0010BF  20                 	db	32
   355  0010C0  68                 	db	104	;'h'
   356  0010C1  65                 	db	101	;'e'
   357  0010C2  6C                 	db	108	;'l'
   358  0010C3  70                 	db	112	;'p'
   359  0010C4  20                 	db	32
   360  0010C5  6D                 	db	109	;'m'
   361  0010C6  65                 	db	101	;'e'
   362  0010C7  6E                 	db	110	;'n'
   363  0010C8  75                 	db	117	;'u'
   364  0010C9  0D                 	db	13
   365  0010CA  0A                 	db	10
   366  0010CB  00                 	db	0
   367  0010CC                     STR_11:
   368  0010CC  6F                 	db	111	;'o'
   369  0010CD  3A                 	db	58	;':'
   370  0010CE  20                 	db	32
   371  0010CF  20                 	db	32
   372  0010D0  20                 	db	32
   373  0010D1  20                 	db	32
   374  0010D2  20                 	db	32
   375  0010D3  20                 	db	32
   376  0010D4  6F                 	db	111	;'o'
   377  0010D5  6B                 	db	107	;'k'
   378  0010D6  0D                 	db	13
   379  0010D7  0A                 	db	10
   380  0010D8  00                 	db	0
   381  0010D9                     STR_7:
   382  0010D9  6F                 	db	111	;'o'
   383  0010DA  3A                 	db	58	;':'
   384  0010DB  20                 	db	32
   385  0010DC  6B                 	db	107	;'k'
   386  0010DD  0D                 	db	13
   387  0010DE  0A                 	db	10
   388  0010DF  00                 	db	0
   389  0010E0                     STR_4:
   390  0010E0  0D                 	db	13
   391  0010E1  0A                 	db	10
   392  0010E2  3E                 	db	62	;'>'
   393  0010E3  20                 	db	32
   394  0010E4  00                 	db	0
   395  0000                     
   396                           ; #config settings
   397  0010E5  00                 	db	0	; dummy byte at the end
   398  0000                     
   399                           	psect	cinit
   400  00176A                     __pcinit:
   401                           	opt callstack 0
   402  00176A                     start_initialization:
   403                           	opt callstack 0
   404  00176A                     __initialization:
   405                           	opt callstack 0
   406                           
   407                           ; Clear objects allocated to BANK0 (32 bytes)
   408  00176A  EE00  F060         	lfsr	0,__pbssBANK0
   409  00176E  0E20               	movlw	32
   410  001770                     clear_0:
   411  001770  6AEE               	clrf	postinc0,c
   412  001772  06E8               	decf	wreg,f,c
   413  001774  E1FD               	bnz	clear_0
   414                           
   415                           ; Clear objects allocated to COMRAM (9 bytes)
   416  001776  EE00  F04A         	lfsr	0,__pbssCOMRAM
   417  00177A  0E09               	movlw	9
   418  00177C                     clear_1:
   419  00177C  6AEE               	clrf	postinc0,c
   420  00177E  06E8               	decf	wreg,f,c
   421  001780  E1FD               	bnz	clear_1
   422  001782                     end_of_initialization:
   423                           	opt callstack 0
   424  001782                     __end_of__initialization:
   425                           	opt callstack 0
   426  001782  0100               	movlb	0
   427  001784  EF25  F009         	goto	_main	;jump to C main() function
   428                           
   429                           	psect	bssCOMRAM
   430  00004A                     __pbssCOMRAM:
   431                           	opt callstack 0
   432  00004A                     _nout:
   433                           	opt callstack 0
   434  00004A                     	ds	2
   435  00004C                     _width:
   436                           	opt callstack 0
   437  00004C                     	ds	2
   438  00004E                     _prec:
   439                           	opt callstack 0
   440  00004E                     	ds	2
   441  000050                     _flags:
   442                           	opt callstack 0
   443  000050                     	ds	2
   444  000052                     _eusart1RxLastError:
   445                           	opt callstack 0
   446  000052                     	ds	1
   447                           
   448                           	psect	bssBANK0
   449  000060                     __pbssBANK0:
   450                           	opt callstack 0
   451  000060                     _dbuf:
   452                           	opt callstack 0
   453  000060                     	ds	32
   454                           
   455                           	psect	cstackCOMRAM
   456  000001                     __pcstackCOMRAM:
   457                           	opt callstack 0
   458  000001                     ??_TMR0_Initialize:
   459  000001                     ?_strlen:
   460                           	opt callstack 0
   461  000001                     EUSART1_Write@txData:
   462                           	opt callstack 0
   463  000001                     EUSART1_SetFramingErrorHandler@interruptHandler:
   464                           	opt callstack 0
   465  000001                     EUSART1_SetOverrunErrorHandler@interruptHandler:
   466                           	opt callstack 0
   467  000001                     EUSART1_SetErrorHandler@interruptHandler:
   468                           	opt callstack 0
   469  000001                     strlen@s:
   470                           	opt callstack 0
   471                           
   472                           ; 2 bytes @ 0x0
   473  000001                     	ds	1
   474  000002                     putch@txData:
   475                           	opt callstack 0
   476                           
   477                           ; 1 bytes @ 0x1
   478  000002                     	ds	1
   479  000003                     fputc@c:
   480                           	opt callstack 0
   481  000003                     strlen@a:
   482                           	opt callstack 0
   483                           
   484                           ; 2 bytes @ 0x2
   485  000003                     	ds	2
   486  000005                     fputc@fp:
   487                           	opt callstack 0
   488                           
   489                           ; 2 bytes @ 0x4
   490  000005                     	ds	2
   491  000007                     ??_fputc:
   492                           
   493                           ; 1 bytes @ 0x6
   494  000007                     	ds	5
   495  00000C                     fputs@s:
   496                           	opt callstack 0
   497                           
   498                           ; 2 bytes @ 0xB
   499  00000C                     	ds	2
   500  00000E                     fputs@fp:
   501                           	opt callstack 0
   502                           
   503                           ; 2 bytes @ 0xD
   504  00000E                     	ds	2
   505  000010                     fputs@c:
   506                           	opt callstack 0
   507                           
   508                           ; 1 bytes @ 0xF
   509  000010                     	ds	1
   510  000011                     fputs@i:
   511                           	opt callstack 0
   512                           
   513                           ; 2 bytes @ 0x10
   514  000011                     	ds	2
   515  000013                     ?_pad:
   516                           	opt callstack 0
   517  000013                     pad@fp:
   518                           	opt callstack 0
   519                           
   520                           ; 2 bytes @ 0x12
   521  000013                     	ds	2
   522  000015                     pad@buf:
   523                           	opt callstack 0
   524                           
   525                           ; 2 bytes @ 0x14
   526  000015                     	ds	2
   527  000017                     pad@p:
   528                           	opt callstack 0
   529                           
   530                           ; 2 bytes @ 0x16
   531  000017                     	ds	2
   532  000019                     ??_pad:
   533                           
   534                           ; 1 bytes @ 0x18
   535  000019                     	ds	1
   536  00001A                     pad@i:
   537                           	opt callstack 0
   538                           
   539                           ; 2 bytes @ 0x19
   540  00001A                     	ds	2
   541  00001C                     pad@w:
   542                           	opt callstack 0
   543                           
   544                           ; 2 bytes @ 0x1B
   545  00001C                     	ds	2
   546  00001E                     ?_ctoa:
   547                           	opt callstack 0
   548  00001E                     ctoa@fp:
   549                           	opt callstack 0
   550                           
   551                           ; 2 bytes @ 0x1D
   552  00001E                     	ds	2
   553  000020                     ctoa@c:
   554                           	opt callstack 0
   555                           
   556                           ; 1 bytes @ 0x1F
   557  000020                     	ds	1
   558  000021                     ctoa@w:
   559                           	opt callstack 0
   560                           
   561                           ; 2 bytes @ 0x20
   562  000021                     	ds	2
   563  000023                     ?_vfpfcnvrt:
   564                           	opt callstack 0
   565  000023                     vfpfcnvrt@fp:
   566                           	opt callstack 0
   567                           
   568                           ; 2 bytes @ 0x22
   569  000023                     	ds	2
   570  000025                     vfpfcnvrt@fmt:
   571                           	opt callstack 0
   572                           
   573                           ; 2 bytes @ 0x24
   574  000025                     	ds	2
   575  000027                     vfpfcnvrt@ap:
   576                           	opt callstack 0
   577                           
   578                           ; 2 bytes @ 0x26
   579  000027                     	ds	2
   580  000029                     ??_vfpfcnvrt:
   581                           
   582                           ; 1 bytes @ 0x28
   583  000029                     	ds	2
   584  00002B                     vfpfcnvrt@c:
   585                           	opt callstack 0
   586                           
   587                           ; 1 bytes @ 0x2A
   588  00002B                     	ds	1
   589  00002C                     ?_vfprintf:
   590                           	opt callstack 0
   591  00002C                     vfprintf@fp:
   592                           	opt callstack 0
   593                           
   594                           ; 2 bytes @ 0x2B
   595  00002C                     	ds	2
   596  00002E                     vfprintf@fmt:
   597                           	opt callstack 0
   598                           
   599                           ; 2 bytes @ 0x2D
   600  00002E                     	ds	2
   601  000030                     vfprintf@ap:
   602                           	opt callstack 0
   603                           
   604                           ; 2 bytes @ 0x2F
   605  000030                     	ds	2
   606  000032                     vfprintf@cfmt:
   607                           	opt callstack 0
   608                           
   609                           ; 2 bytes @ 0x31
   610  000032                     	ds	2
   611  000034                     ?_printf:
   612                           	opt callstack 0
   613  000034                     printf@fmt:
   614                           	opt callstack 0
   615                           
   616                           ; 2 bytes @ 0x33
   617  000034                     	ds	4
   618  000038                     
   619                           ; 1 bytes @ 0x37
   620  000038                     	ds	2
   621  00003A                     printf@ap:
   622                           	opt callstack 0
   623                           
   624                           ; 2 bytes @ 0x39
   625  00003A                     	ds	2
   626  00003C                     ??_main:
   627                           
   628                           ; 1 bytes @ 0x3B
   629  00003C                     	ds	2
   630  00003E                     main@cmd:
   631                           	opt callstack 0
   632                           
   633                           ; 1 bytes @ 0x3D
   634  00003E                     	ds	1
   635  00003F                     main@i:
   636                           	opt callstack 0
   637                           
   638                           ; 1 bytes @ 0x3E
   639  00003F                     	ds	1
   640                           
   641 ;;
   642 ;;Main: autosize = 0, tempsize = 2, incstack = 0, save=0
   643 ;;
   644 ;; *************** function _main *****************
   645 ;; Defined at:
   646 ;;		line 28 in file "main.c"
   647 ;; Parameters:    Size  Location     Type
   648 ;;		None
   649 ;; Auto vars:     Size  Location     Type
   650 ;;  i               1   62[COMRAM] unsigned char 
   651 ;;  cmd             1   61[COMRAM] unsigned char 
   652 ;; Return value:  Size  Location     Type
   653 ;;                  1    wreg      void 
   654 ;; Registers used:
   655 ;;		wreg, fsr1l, fsr1h, fsr2l, fsr2h, status,2, status,0, tblptrl, tblptrh, tblptru, cstack
   656 ;; Tracked objects:
   657 ;;		On entry : 0/0
   658 ;;		On exit  : 0/0
   659 ;;		Unchanged: 0/0
   660 ;; Data sizes:     COMRAM   BANK0   BANK1   BANK2   BANK3   BANK4   BANK5   BANK6   BANK7   BANK8   BANK9  BANK10  BANK1
      +1  BANK12  BANK13  BANK14  BANK15
   661 ;;      Params:         0       0       0       0       0       0       0       0       0       0       0       0       
      +0       0       0       0       0
   662 ;;      Locals:         2       0       0       0       0       0       0       0       0       0       0       0       
      +0       0       0       0       0
   663 ;;      Temps:          2       0       0       0       0       0       0       0       0       0       0       0       
      +0       0       0       0       0
   664 ;;      Totals:         4       0       0       0       0       0       0       0       0       0       0       0       
      +0       0       0       0       0
   665 ;;Total ram usage:        4 bytes
   666 ;; Hardware stack levels required when called:    9
   667 ;; This function calls:
   668 ;;		_EUSART1_Read
   669 ;;		_EUSART1_is_rx_ready
   670 ;;		_SYSTEM_Initialize
   671 ;;		_printf
   672 ;; This function is called by:
   673 ;;		Startup code after reset
   674 ;; This function uses a non-reentrant model
   675 ;;
   676                           
   677                           	psect	text0
   678  00124A                     __ptext0:
   679                           	opt callstack 0
   680  00124A                     _main:
   681                           	opt callstack 22
   682  00124A                     
   683                           ;main.c: 29:                 printf("?: help menu\r\n");;main.c: 30:                 pri
      +                          ntf("o: k\r\n");;main.c: 32:                 printf("z: Clear the terminal.\r\n");
   684  00124A  EC84  F00B         	call	_SYSTEM_Initialize	;wreg free
   685  00124E                     
   686                           ;main.c: 34:     break;
   687  00124E  0E98               	movlw	low STR_1
   688  001250  6E34               	movwf	printf@fmt^0,c
   689  001252  0E10               	movlw	high STR_1
   690  001254  6E35               	movwf	(printf@fmt+1)^0,c
   691  001256  EC71  F00B         	call	_printf	;wreg free
   692  00125A                     
   693                           ;main.c: 35: 
   694  00125A  0E4F               	movlw	low STR_2
   695  00125C  6E34               	movwf	printf@fmt^0,c
   696  00125E  0E10               	movlw	high STR_2
   697  001260  6E35               	movwf	(printf@fmt+1)^0,c
   698  001262  EC71  F00B         	call	_printf	;wreg free
   699  001266                     
   700                           ;main.c: 36: 
   701  001266  0E35               	movlw	low STR_3
   702  001268  6E34               	movwf	printf@fmt^0,c
   703  00126A  0E10               	movlw	high STR_3
   704  00126C  6E35               	movwf	(printf@fmt+1)^0,c
   705  00126E  EC71  F00B         	call	_printf	;wreg free
   706  001272                     
   707                           ;main.c: 37: 
   708  001272  0EE0               	movlw	low STR_4
   709  001274  6E34               	movwf	printf@fmt^0,c
   710  001276  0E10               	movlw	high STR_4
   711  001278  6E35               	movwf	(printf@fmt+1)^0,c
   712  00127A  EC71  F00B         	call	_printf	;wreg free
   713  00127E                     l1613:
   714                           
   715                           ;main.c: 44: 
   716  00127E  ECDD  F00B         	call	_EUSART1_is_rx_ready	;wreg free
   717  001282  0900               	iorlw	0
   718  001284  B4D8               	btfsc	status,2,c
   719  001286  EF47  F009         	goto	u441
   720  00128A  EF49  F009         	goto	u440
   721  00128E                     u441:
   722  00128E  EF3F  F009         	goto	l1613
   723  001292                     u440:
   724  001292                     
   725                           ;main.c: 45: 
   726  001292  EC5D  F00B         	call	_EUSART1_Read	;wreg free
   727  001296  6E3E               	movwf	main@cmd^0,c
   728                           
   729                           ;main.c: 46:             case 'Z':
   730  001298  EFAE  F009         	goto	l1649
   731  00129C                     l1617:
   732                           
   733                           ;main.c: 52: 
   734  00129C  0E01               	movlw	low STR_5
   735  00129E  6E34               	movwf	printf@fmt^0,c
   736  0012A0  0E10               	movlw	high STR_5
   737  0012A2  6E35               	movwf	(printf@fmt+1)^0,c
   738  0012A4  EC71  F00B         	call	_printf	;wreg free
   739                           
   740                           ;main.c: 53: 
   741  0012A8  0EBD               	movlw	low STR_6
   742  0012AA  6E34               	movwf	printf@fmt^0,c
   743  0012AC  0E10               	movlw	high STR_6
   744  0012AE  6E35               	movwf	(printf@fmt+1)^0,c
   745  0012B0  EC71  F00B         	call	_printf	;wreg free
   746                           
   747                           ;main.c: 54:             case 'z':
   748  0012B4  0ED9               	movlw	low STR_7
   749  0012B6  6E34               	movwf	printf@fmt^0,c
   750  0012B8  0E10               	movlw	high STR_7
   751  0012BA  6E35               	movwf	(printf@fmt+1)^0,c
   752  0012BC  EC71  F00B         	call	_printf	;wreg free
   753                           
   754                           ;main.c: 55:                 for (i=0; i<40; i++) printf("\n");
   755  0012C0  0E82               	movlw	low STR_8
   756  0012C2  6E34               	movwf	printf@fmt^0,c
   757  0012C4  0E10               	movlw	high STR_8
   758  0012C6  6E35               	movwf	(printf@fmt+1)^0,c
   759  0012C8  EC71  F00B         	call	_printf	;wreg free
   760                           
   761                           ;main.c: 56:                 break;
   762  0012CC  0E69               	movlw	low STR_9
   763  0012CE  6E34               	movwf	printf@fmt^0,c
   764  0012D0  0E10               	movlw	high STR_9
   765  0012D2  6E35               	movwf	(printf@fmt+1)^0,c
   766  0012D4  EC71  F00B         	call	_printf	;wreg free
   767                           
   768                           ;main.c: 57: 
   769  0012D8  0E01               	movlw	low STR_5
   770  0012DA  6E34               	movwf	printf@fmt^0,c
   771  0012DC  0E10               	movlw	high STR_5
   772  0012DE  6E35               	movwf	(printf@fmt+1)^0,c
   773  0012E0  EC71  F00B         	call	_printf	;wreg free
   774                           
   775                           ;main.c: 58: 
   776  0012E4  EF3F  F009         	goto	l1613
   777  0012E8                     l1619:
   778                           
   779                           ;main.c: 64:    }
   780  0012E8  0ECC               	movlw	low STR_11
   781  0012EA  6E34               	movwf	printf@fmt^0,c
   782  0012EC  0E10               	movlw	high STR_11
   783  0012EE  6E35               	movwf	(printf@fmt+1)^0,c
   784  0012F0  EC71  F00B         	call	_printf	;wreg free
   785                           
   786                           ;main.c: 65: 
   787  0012F4  EF3F  F009         	goto	l1613
   788  0012F8                     l1621:
   789  0012F8  0E00               	movlw	0
   790  0012FA  6E3F               	movwf	main@i^0,c
   791  0012FC                     l1627:
   792  0012FC  0E4D               	movlw	low (STR_3+24)
   793  0012FE  6E34               	movwf	printf@fmt^0,c
   794  001300  0E10               	movlw	high (STR_3+24)
   795  001302  6E35               	movwf	(printf@fmt+1)^0,c
   796  001304  EC71  F00B         	call	_printf	;wreg free
   797  001308  2A3F               	incf	main@i^0,f,c
   798  00130A  0E27               	movlw	39
   799  00130C  643F               	cpfsgt	main@i^0,c
   800  00130E  EF8B  F009         	goto	u451
   801  001312  EF8D  F009         	goto	u450
   802  001316                     u451:
   803  001316  EF7E  F009         	goto	l1627
   804  00131A                     u450:
   805  00131A  00FF               	reset		;# 
   806  00131C  EF3F  F009         	goto	l1613
   807  001320                     l1633:
   808  001320  0E00               	movlw	0
   809  001322  6E3F               	movwf	main@i^0,c
   810  001324                     l1639:
   811  001324  0E4D               	movlw	low (STR_3+24)
   812  001326  6E34               	movwf	printf@fmt^0,c
   813  001328  0E10               	movlw	high (STR_3+24)
   814  00132A  6E35               	movwf	(printf@fmt+1)^0,c
   815  00132C  EC71  F00B         	call	_printf	;wreg free
   816  001330  2A3F               	incf	main@i^0,f,c
   817  001332  0E27               	movlw	39
   818  001334  643F               	cpfsgt	main@i^0,c
   819  001336  EF9F  F009         	goto	u461
   820  00133A  EFA1  F009         	goto	u460
   821  00133E                     u461:
   822  00133E  EF92  F009         	goto	l1639
   823  001342                     u460:
   824  001342  EF3F  F009         	goto	l1613
   825  001346                     l1645:
   826  001346  0EAC               	movlw	low STR_14
   827  001348  6E34               	movwf	printf@fmt^0,c
   828  00134A  0E10               	movlw	high STR_14
   829  00134C  6E35               	movwf	(printf@fmt+1)^0,c
   830  00134E  C03E  F036         	movff	main@cmd,?_printf+2
   831  001352  6A37               	clrf	(?_printf+3)^0,c
   832  001354  EC71  F00B         	call	_printf	;wreg free
   833  001358  EF3F  F009         	goto	l1613
   834  00135C                     l1649:
   835  00135C  503E               	movf	main@cmd^0,w,c
   836  00135E  6E3C               	movwf	??_main^0,c
   837  001360  6A3D               	clrf	(??_main+1)^0,c
   838                           
   839                           ; Switch on 2 bytes has been partitioned into a top level switch of size 1, and 1 sub-sw
      +                          itches
   840                           ; Switch size 1, requested type "simple"
   841                           ; Number of cases is 1, Range of values is 0 to 0
   842                           ; switch strategies available:
   843                           ; Name         Instructions Cycles
   844                           ; simple_byte            4     3 (average)
   845                           ;	Chosen strategy is simple_byte
   846  001362  503D               	movf	(??_main+1)^0,w,c
   847  001364  0A00               	xorlw	0	; case 0
   848  001366  B4D8               	btfsc	status,2,c
   849  001368  EFB8  F009         	goto	l1675
   850  00136C  EFA3  F009         	goto	l1645
   851  001370                     l1675:
   852                           
   853                           ; Switch size 1, requested type "simple"
   854                           ; Number of cases is 4, Range of values is 63 to 122
   855                           ; switch strategies available:
   856                           ; Name         Instructions Cycles
   857                           ; simple_byte           13     7 (average)
   858                           ;	Chosen strategy is simple_byte
   859  001370  503C               	movf	??_main^0,w,c
   860  001372  0A3F               	xorlw	63	; case 63
   861  001374  B4D8               	btfsc	status,2,c
   862  001376  EF4E  F009         	goto	l1617
   863  00137A  0A65               	xorlw	101	; case 90
   864  00137C  B4D8               	btfsc	status,2,c
   865  00137E  EF7C  F009         	goto	l1621
   866  001382  0A35               	xorlw	53	; case 111
   867  001384  B4D8               	btfsc	status,2,c
   868  001386  EF74  F009         	goto	l1619
   869  00138A  0A15               	xorlw	21	; case 122
   870  00138C  B4D8               	btfsc	status,2,c
   871  00138E  EF90  F009         	goto	l1633
   872  001392  EFA3  F009         	goto	l1645
   873  001396  EF00  F000         	goto	start
   874  00139A                     __end_of_main:
   875                           	opt callstack 0
   876                           
   877 ;; *************** function _printf *****************
   878 ;; Defined at:
   879 ;;		line 5 in file "C:\Program Files (x86)\Microchip\xc8\v2.10\pic\sources\c99\common\printf.c"
   880 ;; Parameters:    Size  Location     Type
   881 ;;  fmt             2   51[COMRAM] PTR const unsigned char 
   882 ;;		 -> STR_14(17), STR_13(2), STR_12(2), STR_11(13), 
   883 ;;		 -> STR_10(52), STR_9(25), STR_8(22), STR_7(7), 
   884 ;;		 -> STR_6(15), STR_5(52), STR_4(5), STR_3(26), 
   885 ;;		 -> STR_2(26), STR_1(20), 
   886 ;; Auto vars:     Size  Location     Type
   887 ;;  ap              2   57[COMRAM] PTR void [1]
   888 ;;		 -> ?_printf(2), 
   889 ;;  ret             2    0        int 
   890 ;; Return value:  Size  Location     Type
   891 ;;                  2   51[COMRAM] int 
   892 ;; Registers used:
   893 ;;		wreg, fsr1l, fsr1h, fsr2l, fsr2h, status,2, status,0, tblptrl, tblptrh, tblptru, cstack
   894 ;; Tracked objects:
   895 ;;		On entry : 0/0
   896 ;;		On exit  : 0/0
   897 ;;		Unchanged: 0/0
   898 ;; Data sizes:     COMRAM   BANK0   BANK1   BANK2   BANK3   BANK4   BANK5   BANK6   BANK7   BANK8   BANK9  BANK10  BANK1
      +1  BANK12  BANK13  BANK14  BANK15
   899 ;;      Params:         4       0       0       0       0       0       0       0       0       0       0       0       
      +0       0       0       0       0
   900 ;;      Locals:         4       0       0       0       0       0       0       0       0       0       0       0       
      +0       0       0       0       0
   901 ;;      Temps:          0       0       0       0       0       0       0       0       0       0       0       0       
      +0       0       0       0       0
   902 ;;      Totals:         8       0       0       0       0       0       0       0       0       0       0       0       
      +0       0       0       0       0
   903 ;;Total ram usage:        8 bytes
   904 ;; Hardware stack levels used:    1
   905 ;; Hardware stack levels required when called:    8
   906 ;; This function calls:
   907 ;;		_vfprintf
   908 ;; This function is called by:
   909 ;;		_main
   910 ;; This function uses a non-reentrant model
   911 ;;
   912                           
   913                           	psect	text1
   914  0016E2                     __ptext1:
   915                           	opt callstack 0
   916  0016E2                     _printf:
   917                           	opt callstack 22
   918  0016E2  0E36               	movlw	low (?_printf+2)
   919  0016E4  6E3A               	movwf	printf@ap^0,c
   920  0016E6  0E00               	movlw	high (?_printf+2)
   921  0016E8  6E3B               	movwf	(printf@ap+1)^0,c
   922  0016EA  0E00               	movlw	0
   923  0016EC  6E2C               	movwf	vfprintf@fp^0,c
   924  0016EE  0E00               	movlw	0
   925  0016F0  6E2D               	movwf	(vfprintf@fp+1)^0,c
   926  0016F2  C034  F02E         	movff	printf@fmt,vfprintf@fmt
   927  0016F6  C035  F02F         	movff	printf@fmt+1,vfprintf@fmt+1
   928  0016FA  0E3A               	movlw	low printf@ap
   929  0016FC  6E30               	movwf	vfprintf@ap^0,c
   930  0016FE  0E00               	movlw	high printf@ap
   931  001700  6E31               	movwf	(vfprintf@ap+1)^0,c
   932  001702  EC79  F00A         	call	_vfprintf	;wreg free
   933  001706  0012               	return		;funcret
   934  001708                     __end_of_printf:
   935                           	opt callstack 0
   936                           
   937 ;; *************** function _vfprintf *****************
   938 ;; Defined at:
   939 ;;		line 1368 in file "C:\Program Files (x86)\Microchip\xc8\v2.10\pic\sources\c99\common\doprnt.c"
   940 ;; Parameters:    Size  Location     Type
   941 ;;  fp              2   43[COMRAM] PTR struct _IO_FILE
   942 ;;		 -> NULL(0), 
   943 ;;  fmt             2   45[COMRAM] PTR const unsigned char 
   944 ;;		 -> STR_14(17), STR_13(2), STR_12(2), STR_11(13), 
   945 ;;		 -> STR_10(52), STR_9(25), STR_8(22), STR_7(7), 
   946 ;;		 -> STR_6(15), STR_5(52), STR_4(5), STR_3(26), 
   947 ;;		 -> STR_2(26), STR_1(20), 
   948 ;;  ap              2   47[COMRAM] PTR PTR void 
   949 ;;		 -> printf@ap(2), 
   950 ;; Auto vars:     Size  Location     Type
   951 ;;  cfmt            2   49[COMRAM] PTR unsigned char 
   952 ;;		 -> STR_14(17), STR_13(2), STR_12(2), STR_11(13), 
   953 ;;		 -> STR_10(52), STR_9(25), STR_8(22), STR_7(7), 
   954 ;;		 -> STR_6(15), STR_5(52), STR_4(5), STR_3(26), 
   955 ;;		 -> STR_2(26), STR_1(20), 
   956 ;; Return value:  Size  Location     Type
   957 ;;                  2   43[COMRAM] int 
   958 ;; Registers used:
   959 ;;		wreg, fsr1l, fsr1h, fsr2l, fsr2h, status,2, status,0, tblptrl, tblptrh, tblptru, cstack
   960 ;; Tracked objects:
   961 ;;		On entry : 0/0
   962 ;;		On exit  : 0/0
   963 ;;		Unchanged: 0/0
   964 ;; Data sizes:     COMRAM   BANK0   BANK1   BANK2   BANK3   BANK4   BANK5   BANK6   BANK7   BANK8   BANK9  BANK10  BANK1
      +1  BANK12  BANK13  BANK14  BANK15
   965 ;;      Params:         6       0       0       0       0       0       0       0       0       0       0       0       
      +0       0       0       0       0
   966 ;;      Locals:         2       0       0       0       0       0       0       0       0       0       0       0       
      +0       0       0       0       0
   967 ;;      Temps:          0       0       0       0       0       0       0       0       0       0       0       0       
      +0       0       0       0       0
   968 ;;      Totals:         8       0       0       0       0       0       0       0       0       0       0       0       
      +0       0       0       0       0
   969 ;;Total ram usage:        8 bytes
   970 ;; Hardware stack levels used:    1
   971 ;; Hardware stack levels required when called:    7
   972 ;; This function calls:
   973 ;;		_vfpfcnvrt
   974 ;; This function is called by:
   975 ;;		_printf
   976 ;; This function uses a non-reentrant model
   977 ;;
   978                           
   979                           	psect	text2
   980  0014F2                     __ptext2:
   981                           	opt callstack 0
   982  0014F2                     _vfprintf:
   983                           	opt callstack 22
   984  0014F2                     
   985                           ;C:\Program Files (x86)\Microchip\xc8\v2.10\pic\sources\c99\common\doprnt.c: 1368: int v
      +                          fprintf(FILE *fp, const char *fmt, va_list ap);C:\Program Files (x86)\Microchip\xc8\v2.1
      +                          0\pic\sources\c99\common\doprnt.c: 1369: {;C:\Program Files (x86)\Microchip\xc8\v2.10\pi
      +                          c\sources\c99\common\doprnt.c: 1371:     char *cfmt;;C:\Program Files (x86)\Microchip\xc
      +                          8\v2.10\pic\sources\c99\common\doprnt.c: 1373:     cfmt = (char *)fmt;
   986  0014F2  C02E  F032         	movff	vfprintf@fmt,vfprintf@cfmt
   987  0014F6  C02F  F033         	movff	vfprintf@fmt+1,vfprintf@cfmt+1
   988  0014FA                     
   989                           ;C:\Program Files (x86)\Microchip\xc8\v2.10\pic\sources\c99\common\doprnt.c: 1374:     n
      +                          out = 0;
   990  0014FA  0E00               	movlw	0
   991  0014FC  6E4B               	movwf	(_nout+1)^0,c
   992  0014FE  0E00               	movlw	0
   993  001500  6E4A               	movwf	_nout^0,c
   994                           
   995                           ;C:\Program Files (x86)\Microchip\xc8\v2.10\pic\sources\c99\common\doprnt.c: 1375:     w
      +                          hile (*cfmt) {
   996  001502  EF95  F00A         	goto	l1589
   997  001506                     l1587:
   998                           
   999                           ;C:\Program Files (x86)\Microchip\xc8\v2.10\pic\sources\c99\common\doprnt.c: 1376:      
      +                             nout += vfpfcnvrt(fp, &cfmt, ap);
  1000  001506  C02C  F023         	movff	vfprintf@fp,vfpfcnvrt@fp
  1001  00150A  C02D  F024         	movff	vfprintf@fp+1,vfpfcnvrt@fp+1
  1002  00150E  0E32               	movlw	low vfprintf@cfmt
  1003  001510  6E25               	movwf	vfpfcnvrt@fmt^0,c
  1004  001512  0E00               	movlw	high vfprintf@cfmt
  1005  001514  6E26               	movwf	(vfpfcnvrt@fmt+1)^0,c
  1006  001516  C030  F027         	movff	vfprintf@ap,vfpfcnvrt@ap
  1007  00151A  C031  F028         	movff	vfprintf@ap+1,vfpfcnvrt@ap+1
  1008  00151E  EC73  F008         	call	_vfpfcnvrt	;wreg free
  1009  001522  5023               	movf	?_vfpfcnvrt^0,w,c
  1010  001524  264A               	addwf	_nout^0,f,c
  1011  001526  5024               	movf	(?_vfpfcnvrt+1)^0,w,c
  1012  001528  224B               	addwfc	(_nout+1)^0,f,c
  1013  00152A                     l1589:
  1014                           
  1015                           ;C:\Program Files (x86)\Microchip\xc8\v2.10\pic\sources\c99\common\doprnt.c: 1375:     w
      +                          hile (*cfmt) {
  1016  00152A  C032  FFF6         	movff	vfprintf@cfmt,tblptrl
  1017  00152E  C033  FFF7         	movff	vfprintf@cfmt+1,tblptrh
  1018  001532                     	if	1	;Program memory is < 0x10000, tblptru is always zero
  1019  001532  6AF8               	clrf	tblptru,c
  1020  001534                     	endif
  1021  001534                     	if	0	;tblptru may be non-zero
  1022  001534                     	endif
  1023  001534  0008               	tblrd		*
  1024  001536  50F5               	movf	tablat,w,c
  1025  001538  0900               	iorlw	0
  1026  00153A  A4D8               	btfss	status,2,c
  1027  00153C  EFA2  F00A         	goto	u431
  1028  001540  EFA4  F00A         	goto	u430
  1029  001544                     u431:
  1030  001544  EF83  F00A         	goto	l1587
  1031  001548                     u430:
  1032  001548                     
  1033                           ;C:\Program Files (x86)\Microchip\xc8\v2.10\pic\sources\c99\common\doprnt.c: 1378:     r
      +                          eturn nout;
  1034  001548  C04A  F02C         	movff	_nout,?_vfprintf
  1035  00154C  C04B  F02D         	movff	_nout+1,?_vfprintf+1
  1036  001550  0012               	return		;funcret
  1037  001552                     __end_of_vfprintf:
  1038                           	opt callstack 0
  1039                           
  1040 ;; *************** function _vfpfcnvrt *****************
  1041 ;; Defined at:
  1042 ;;		line 670 in file "C:\Program Files (x86)\Microchip\xc8\v2.10\pic\sources\c99\common\doprnt.c"
  1043 ;; Parameters:    Size  Location     Type
  1044 ;;  fp              2   34[COMRAM] PTR struct _IO_FILE
  1045 ;;		 -> NULL(0), 
  1046 ;;  fmt             2   36[COMRAM] PTR PTR unsigned char 
  1047 ;;		 -> vfprintf@cfmt(2), 
  1048 ;;  ap              2   38[COMRAM] PTR PTR void 
  1049 ;;		 -> printf@ap(2), 
  1050 ;; Auto vars:     Size  Location     Type
  1051 ;;  llu             8    0        unsigned long long 
  1052 ;;  ll              8    0        long long 
  1053 ;;  f               4    0        long long 
  1054 ;;  vp              3    0        PTR void 
  1055 ;;  ct              3    0        unsigned char [3]
  1056 ;;  cp              3    0        PTR unsigned char 
  1057 ;;  i               2    0        int 
  1058 ;;  done            2    0        int 
  1059 ;;  c               1   42[COMRAM] unsigned char 
  1060 ;; Return value:  Size  Location     Type
  1061 ;;                  2   34[COMRAM] int 
  1062 ;; Registers used:
  1063 ;;		wreg, fsr1l, fsr1h, fsr2l, fsr2h, status,2, status,0, tblptrl, tblptrh, tblptru, cstack
  1064 ;; Tracked objects:
  1065 ;;		On entry : 0/0
  1066 ;;		On exit  : 0/0
  1067 ;;		Unchanged: 0/0
  1068 ;; Data sizes:     COMRAM   BANK0   BANK1   BANK2   BANK3   BANK4   BANK5   BANK6   BANK7   BANK8   BANK9  BANK10  BANK1
      +1  BANK12  BANK13  BANK14  BANK15
  1069 ;;      Params:         6       0       0       0       0       0       0       0       0       0       0       0       
      +0       0       0       0       0
  1070 ;;      Locals:         1       0       0       0       0       0       0       0       0       0       0       0       
      +0       0       0       0       0
  1071 ;;      Temps:          2       0       0       0       0       0       0       0       0       0       0       0       
      +0       0       0       0       0
  1072 ;;      Totals:         9       0       0       0       0       0       0       0       0       0       0       0       
      +0       0       0       0       0
  1073 ;;Total ram usage:        9 bytes
  1074 ;; Hardware stack levels used:    1
  1075 ;; Hardware stack levels required when called:    6
  1076 ;; This function calls:
  1077 ;;		_ctoa
  1078 ;;		_fputc
  1079 ;; This function is called by:
  1080 ;;		_vfprintf
  1081 ;; This function uses a non-reentrant model
  1082 ;;
  1083                           
  1084                           	psect	text3
  1085  0010E6                     __ptext3:
  1086                           	opt callstack 0
  1087  0010E6                     _vfpfcnvrt:
  1088                           	opt callstack 22
  1089  0010E6                     
  1090                           ;C:\Program Files (x86)\Microchip\xc8\v2.10\pic\sources\c99\common\doprnt.c: 670: static
      +                           int vfpfcnvrt(FILE *fp, char *fmt[], va_list ap);C:\Program Files (x86)\Microchip\xc8\v
      +                          2.10\pic\sources\c99\common\doprnt.c: 671: {;C:\Program Files (x86)\Microchip\xc8\v2.10\
      +                          pic\sources\c99\common\doprnt.c: 672:     char c, *cp, ct[3];;C:\Program Files (x86)\Mic
      +                          rochip\xc8\v2.10\pic\sources\c99\common\doprnt.c: 673:     int done, i;;C:\Program Files
      +                           (x86)\Microchip\xc8\v2.10\pic\sources\c99\common\doprnt.c: 674:     long long ll;
  1091  0010E6  C025  FFD9         	movff	vfpfcnvrt@fmt,fsr2l
  1092  0010EA  C026  FFDA         	movff	vfpfcnvrt@fmt+1,fsr2h
  1093  0010EE  CFDE FFF6          	movff	postinc2,tblptrl
  1094  0010F2  CFDD FFF7          	movff	postdec2,tblptrh
  1095  0010F6                     	if	1	;Program memory is < 0x10000, tblptru is always zero
  1096  0010F6  6AF8               	clrf	tblptru,c
  1097  0010F8                     	endif
  1098  0010F8                     	if	0	;tblptru may be non-zero
  1099  0010F8                     	endif
  1100  0010F8  0008               	tblrd		*
  1101  0010FA  50F5               	movf	tablat,w,c
  1102  0010FC  0A25               	xorlw	37
  1103  0010FE  A4D8               	btfss	status,2,c
  1104  001100  EF84  F008         	goto	u401
  1105  001104  EF86  F008         	goto	u400
  1106  001108                     u401:
  1107  001108  EF08  F009         	goto	l1565
  1108  00110C                     u400:
  1109  00110C                     
  1110                           ;C:\Program Files (x86)\Microchip\xc8\v2.10\pic\sources\c99\common\doprnt.c: 681:       
      +                            ++*fmt;
  1111  00110C  C025  FFD9         	movff	vfpfcnvrt@fmt,fsr2l
  1112  001110  C026  FFDA         	movff	vfpfcnvrt@fmt+1,fsr2h
  1113  001114  2ADE               	incf	postinc2,f,c
  1114  001116  0E00               	movlw	0
  1115  001118  22DD               	addwfc	postdec2,f,c
  1116  00111A                     
  1117                           ;C:\Program Files (x86)\Microchip\xc8\v2.10\pic\sources\c99\common\doprnt.c: 683:       
      +                            flags = width = 0;
  1118  00111A  0E00               	movlw	0
  1119  00111C  6E4D               	movwf	(_width+1)^0,c
  1120  00111E  0E00               	movlw	0
  1121  001120  6E4C               	movwf	_width^0,c
  1122  001122  C04C  F050         	movff	_width,_flags
  1123  001126  C04D  F051         	movff	_width+1,_flags+1
  1124  00112A                     
  1125                           ;C:\Program Files (x86)\Microchip\xc8\v2.10\pic\sources\c99\common\doprnt.c: 684:       
      +                            prec = -1;
  1126  00112A  684E               	setf	_prec^0,c
  1127  00112C  684F               	setf	(_prec+1)^0,c
  1128  00112E                     
  1129                           ;C:\Program Files (x86)\Microchip\xc8\v2.10\pic\sources\c99\common\doprnt.c: 792:       
      +                            if (*fmt[0] == 'c') {
  1130  00112E  C025  FFD9         	movff	vfpfcnvrt@fmt,fsr2l
  1131  001132  C026  FFDA         	movff	vfpfcnvrt@fmt+1,fsr2h
  1132  001136  CFDE FFF6          	movff	postinc2,tblptrl
  1133  00113A  CFDD FFF7          	movff	postdec2,tblptrh
  1134  00113E                     	if	1	;Program memory is < 0x10000, tblptru is always zero
  1135  00113E  6AF8               	clrf	tblptru,c
  1136  001140                     	endif
  1137  001140                     	if	0	;tblptru may be non-zero
  1138  001140                     	endif
  1139  001140  0008               	tblrd		*
  1140  001142  50F5               	movf	tablat,w,c
  1141  001144  0A63               	xorlw	99
  1142  001146  A4D8               	btfss	status,2,c
  1143  001148  EFA8  F008         	goto	u411
  1144  00114C  EFAA  F008         	goto	u410
  1145  001150                     u411:
  1146  001150  EFD1  F008         	goto	l1549
  1147  001154                     u410:
  1148  001154                     
  1149                           ;C:\Program Files (x86)\Microchip\xc8\v2.10\pic\sources\c99\common\doprnt.c: 793:       
      +                                ++*fmt;
  1150  001154  C025  FFD9         	movff	vfpfcnvrt@fmt,fsr2l
  1151  001158  C026  FFDA         	movff	vfpfcnvrt@fmt+1,fsr2h
  1152  00115C  2ADE               	incf	postinc2,f,c
  1153  00115E  0E00               	movlw	0
  1154  001160  22DD               	addwfc	postdec2,f,c
  1155                           
  1156                           ;C:\Program Files (x86)\Microchip\xc8\v2.10\pic\sources\c99\common\doprnt.c: 794:       
      +                                c = (unsigned char)(*(int *)__va_arg(*(int **)ap, (int)0));
  1157  001162  C027  FFD9         	movff	vfpfcnvrt@ap,fsr2l
  1158  001166  C028  FFDA         	movff	vfpfcnvrt@ap+1,fsr2h
  1159  00116A  CFDF F029          	movff	indf2,??_vfpfcnvrt
  1160  00116E  0E02               	movlw	2
  1161  001170  26DE               	addwf	postinc2,f,c
  1162  001172  CFDF F02A          	movff	indf2,??_vfpfcnvrt+1
  1163  001176  0E00               	movlw	0
  1164  001178  22DD               	addwfc	postdec2,f,c
  1165  00117A  C029  FFD9         	movff	??_vfpfcnvrt,fsr2l
  1166  00117E  C02A  FFDA         	movff	??_vfpfcnvrt+1,fsr2h
  1167  001182  50DF               	movf	indf2,w,c
  1168  001184  6E2B               	movwf	vfpfcnvrt@c^0,c
  1169  001186                     
  1170                           ;C:\Program Files (x86)\Microchip\xc8\v2.10\pic\sources\c99\common\doprnt.c: 795:       
      +                                return ctoa(fp, c);
  1171  001186  C023  F01E         	movff	vfpfcnvrt@fp,ctoa@fp
  1172  00118A  C024  F01F         	movff	vfpfcnvrt@fp+1,ctoa@fp+1
  1173  00118E  C02B  F020         	movff	vfpfcnvrt@c,ctoa@c
  1174  001192  ECA9  F00A         	call	_ctoa	;wreg free
  1175  001196  C01E  F023         	movff	?_ctoa,?_vfpfcnvrt
  1176  00119A  C01F  F024         	movff	?_ctoa+1,?_vfpfcnvrt+1
  1177  00119E  EF24  F009         	goto	l373
  1178  0011A2                     l1549:
  1179                           
  1180                           ;C:\Program Files (x86)\Microchip\xc8\v2.10\pic\sources\c99\common\doprnt.c: 1350:      
      +                             if ((*fmt)[0] == '%') {
  1181  0011A2  C025  FFD9         	movff	vfpfcnvrt@fmt,fsr2l
  1182  0011A6  C026  FFDA         	movff	vfpfcnvrt@fmt+1,fsr2h
  1183  0011AA  CFDE FFF6          	movff	postinc2,tblptrl
  1184  0011AE  CFDD FFF7          	movff	postdec2,tblptrh
  1185  0011B2                     	if	1	;Program memory is < 0x10000, tblptru is always zero
  1186  0011B2  6AF8               	clrf	tblptru,c
  1187  0011B4                     	endif
  1188  0011B4                     	if	0	;tblptru may be non-zero
  1189  0011B4                     	endif
  1190  0011B4  0008               	tblrd		*
  1191  0011B6  50F5               	movf	tablat,w,c
  1192  0011B8  0A25               	xorlw	37
  1193  0011BA  A4D8               	btfss	status,2,c
  1194  0011BC  EFE2  F008         	goto	u421
  1195  0011C0  EFE4  F008         	goto	u420
  1196  0011C4                     u421:
  1197  0011C4  EFFB  F008         	goto	l1559
  1198  0011C8                     u420:
  1199  0011C8                     
  1200                           ;C:\Program Files (x86)\Microchip\xc8\v2.10\pic\sources\c99\common\doprnt.c: 1351:      
      +                                 ++*fmt;
  1201  0011C8  C025  FFD9         	movff	vfpfcnvrt@fmt,fsr2l
  1202  0011CC  C026  FFDA         	movff	vfpfcnvrt@fmt+1,fsr2h
  1203  0011D0  2ADE               	incf	postinc2,f,c
  1204  0011D2  0E00               	movlw	0
  1205  0011D4  22DD               	addwfc	postdec2,f,c
  1206  0011D6                     
  1207                           ;C:\Program Files (x86)\Microchip\xc8\v2.10\pic\sources\c99\common\doprnt.c: 1352:      
      +                                 fputc((int)'%', fp);
  1208  0011D6  0E00               	movlw	0
  1209  0011D8  6E04               	movwf	(fputc@c+1)^0,c
  1210  0011DA  0E25               	movlw	37
  1211  0011DC  6E03               	movwf	fputc@c^0,c
  1212  0011DE  C023  F005         	movff	vfpfcnvrt@fp,fputc@fp
  1213  0011E2  C024  F006         	movff	vfpfcnvrt@fp+1,fputc@fp+1
  1214  0011E6  EC2E  F00A         	call	_fputc	;wreg free
  1215  0011EA                     l1555:
  1216                           
  1217                           ;C:\Program Files (x86)\Microchip\xc8\v2.10\pic\sources\c99\common\doprnt.c: 1353:      
      +                                 return 1;
  1218  0011EA  0E00               	movlw	0
  1219  0011EC  6E24               	movwf	(?_vfpfcnvrt+1)^0,c
  1220  0011EE  0E01               	movlw	1
  1221  0011F0  6E23               	movwf	?_vfpfcnvrt^0,c
  1222  0011F2  EF24  F009         	goto	l373
  1223  0011F6                     l1559:
  1224                           
  1225                           ;C:\Program Files (x86)\Microchip\xc8\v2.10\pic\sources\c99\common\doprnt.c: 1357:      
      +                             ++*fmt;
  1226  0011F6  C025  FFD9         	movff	vfpfcnvrt@fmt,fsr2l
  1227  0011FA  C026  FFDA         	movff	vfpfcnvrt@fmt+1,fsr2h
  1228  0011FE  2ADE               	incf	postinc2,f,c
  1229  001200  0E00               	movlw	0
  1230  001202  22DD               	addwfc	postdec2,f,c
  1231  001204                     
  1232                           ;C:\Program Files (x86)\Microchip\xc8\v2.10\pic\sources\c99\common\doprnt.c: 1358:      
      +                             return 0;
  1233  001204  0E00               	movlw	0
  1234  001206  6E24               	movwf	(?_vfpfcnvrt+1)^0,c
  1235  001208  0E00               	movlw	0
  1236  00120A  6E23               	movwf	?_vfpfcnvrt^0,c
  1237  00120C  EF24  F009         	goto	l373
  1238  001210                     l1565:
  1239                           
  1240                           ;C:\Program Files (x86)\Microchip\xc8\v2.10\pic\sources\c99\common\doprnt.c: 1362:     f
      +                          putc((int)(*fmt)[0], fp);
  1241  001210  C025  FFD9         	movff	vfpfcnvrt@fmt,fsr2l
  1242  001214  C026  FFDA         	movff	vfpfcnvrt@fmt+1,fsr2h
  1243  001218  CFDE FFF6          	movff	postinc2,tblptrl
  1244  00121C  CFDD FFF7          	movff	postdec2,tblptrh
  1245  001220                     	if	1	;Program memory is < 0x10000, tblptru is always zero
  1246  001220  6AF8               	clrf	tblptru,c
  1247  001222                     	endif
  1248  001222                     	if	0	;tblptru may be non-zero
  1249  001222                     	endif
  1250  001222  0008               	tblrd		*
  1251  001224  50F5               	movf	tablat,w,c
  1252  001226  6E03               	movwf	fputc@c^0,c
  1253  001228  6A04               	clrf	(fputc@c+1)^0,c
  1254  00122A  C023  F005         	movff	vfpfcnvrt@fp,fputc@fp
  1255  00122E  C024  F006         	movff	vfpfcnvrt@fp+1,fputc@fp+1
  1256  001232  EC2E  F00A         	call	_fputc	;wreg free
  1257  001236                     
  1258                           ;C:\Program Files (x86)\Microchip\xc8\v2.10\pic\sources\c99\common\doprnt.c: 1363:     +
      +                          +*fmt;
  1259  001236  C025  FFD9         	movff	vfpfcnvrt@fmt,fsr2l
  1260  00123A  C026  FFDA         	movff	vfpfcnvrt@fmt+1,fsr2h
  1261  00123E  2ADE               	incf	postinc2,f,c
  1262  001240  0E00               	movlw	0
  1263  001242  22DD               	addwfc	postdec2,f,c
  1264  001244  EFF5  F008         	goto	l1555
  1265  001248                     l373:
  1266  001248  0012               	return		;funcret
  1267  00124A                     __end_of_vfpfcnvrt:
  1268                           	opt callstack 0
  1269                           
  1270 ;; *************** function _ctoa *****************
  1271 ;; Defined at:
  1272 ;;		line 259 in file "C:\Program Files (x86)\Microchip\xc8\v2.10\pic\sources\c99\common\doprnt.c"
  1273 ;; Parameters:    Size  Location     Type
  1274 ;;  fp              2   29[COMRAM] PTR struct _IO_FILE
  1275 ;;		 -> NULL(0), 
  1276 ;;  c               1   31[COMRAM] unsigned char 
  1277 ;; Auto vars:     Size  Location     Type
  1278 ;;  w               2   32[COMRAM] int 
  1279 ;;  l               2    0        int 
  1280 ;; Return value:  Size  Location     Type
  1281 ;;                  2   29[COMRAM] int 
  1282 ;; Registers used:
  1283 ;;		wreg, fsr1l, fsr1h, fsr2l, fsr2h, status,2, status,0, cstack
  1284 ;; Tracked objects:
  1285 ;;		On entry : 0/0
  1286 ;;		On exit  : 0/0
  1287 ;;		Unchanged: 0/0
  1288 ;; Data sizes:     COMRAM   BANK0   BANK1   BANK2   BANK3   BANK4   BANK5   BANK6   BANK7   BANK8   BANK9  BANK10  BANK1
      +1  BANK12  BANK13  BANK14  BANK15
  1289 ;;      Params:         3       0       0       0       0       0       0       0       0       0       0       0       
      +0       0       0       0       0
  1290 ;;      Locals:         2       0       0       0       0       0       0       0       0       0       0       0       
      +0       0       0       0       0
  1291 ;;      Temps:          0       0       0       0       0       0       0       0       0       0       0       0       
      +0       0       0       0       0
  1292 ;;      Totals:         5       0       0       0       0       0       0       0       0       0       0       0       
      +0       0       0       0       0
  1293 ;;Total ram usage:        5 bytes
  1294 ;; Hardware stack levels used:    1
  1295 ;; Hardware stack levels required when called:    5
  1296 ;; This function calls:
  1297 ;;		_pad
  1298 ;; This function is called by:
  1299 ;;		_vfpfcnvrt
  1300 ;; This function uses a non-reentrant model
  1301 ;;
  1302                           
  1303                           	psect	text4
  1304  001552                     __ptext4:
  1305                           	opt callstack 0
  1306  001552                     _ctoa:
  1307                           	opt callstack 22
  1308  001552                     
  1309                           ;C:\Program Files (x86)\Microchip\xc8\v2.10\pic\sources\c99\common\doprnt.c: 259: static
      +                           int ctoa(FILE *fp, char c);C:\Program Files (x86)\Microchip\xc8\v2.10\pic\sources\c99\c
      +                          ommon\doprnt.c: 260: {;C:\Program Files (x86)\Microchip\xc8\v2.10\pic\sources\c99\common
      +                          \doprnt.c: 261:     int l, w;;C:\Program Files (x86)\Microchip\xc8\v2.10\pic\sources\c99
      +                          \common\doprnt.c: 264:     w = width ? width - 1 : width;
  1310  001552  504C               	movf	_width^0,w,c
  1311  001554  104D               	iorwf	(_width+1)^0,w,c
  1312  001556  A4D8               	btfss	status,2,c
  1313  001558  EFB0  F00A         	goto	u391
  1314  00155C  EFB2  F00A         	goto	u390
  1315  001560                     u391:
  1316  001560  EFB8  F00A         	goto	l1517
  1317  001564                     u390:
  1318  001564  C04C  F021         	movff	_width,ctoa@w
  1319  001568  C04D  F022         	movff	_width+1,ctoa@w+1
  1320  00156C  EFBE  F00A         	goto	l1519
  1321  001570                     l1517:
  1322  001570  0EFF               	movlw	255
  1323  001572  244C               	addwf	_width^0,w,c
  1324  001574  6E21               	movwf	ctoa@w^0,c
  1325  001576  0EFF               	movlw	255
  1326  001578  204D               	addwfc	(_width+1)^0,w,c
  1327  00157A  6E22               	movwf	(ctoa@w+1)^0,c
  1328  00157C                     l1519:
  1329                           
  1330                           ;C:\Program Files (x86)\Microchip\xc8\v2.10\pic\sources\c99\common\doprnt.c: 267:     db
      +                          uf[0] = c;
  1331  00157C  C020  F060         	movff	ctoa@c,_dbuf
  1332  001580                     
  1333                           ;C:\Program Files (x86)\Microchip\xc8\v2.10\pic\sources\c99\common\doprnt.c: 268:     db
      +                          uf[1] = '\0';
  1334  001580  0E00               	movlw	0
  1335  001582  0100               	movlb	0	; () banked
  1336  001584  6F61               	movwf	(_dbuf+1)& (0+255),b
  1337  001586                     
  1338                           ; BSR set to: 0
  1339                           ;C:\Program Files (x86)\Microchip\xc8\v2.10\pic\sources\c99\common\doprnt.c: 269:     re
      +                          turn pad(fp, &dbuf[0], w);
  1340  001586  C01E  F013         	movff	ctoa@fp,pad@fp
  1341  00158A  C01F  F014         	movff	ctoa@fp+1,pad@fp+1
  1342  00158E  0E60               	movlw	low _dbuf
  1343  001590  6E15               	movwf	pad@buf^0,c
  1344  001592  0E00               	movlw	high _dbuf
  1345  001594  6E16               	movwf	(pad@buf+1)^0,c
  1346  001596  C021  F017         	movff	ctoa@w,pad@p
  1347  00159A  C022  F018         	movff	ctoa@w+1,pad@p+1
  1348  00159E  ECCD  F009         	call	_pad	;wreg free
  1349  0015A2  C013  F01E         	movff	?_pad,?_ctoa
  1350  0015A6  C014  F01F         	movff	?_pad+1,?_ctoa+1
  1351  0015AA  0012               	return		;funcret
  1352  0015AC                     __end_of_ctoa:
  1353                           	opt callstack 0
  1354                           
  1355 ;; *************** function _pad *****************
  1356 ;; Defined at:
  1357 ;;		line 72 in file "C:\Program Files (x86)\Microchip\xc8\v2.10\pic\sources\c99\common\doprnt.c"
  1358 ;; Parameters:    Size  Location     Type
  1359 ;;  fp              2   18[COMRAM] PTR struct _IO_FILE
  1360 ;;		 -> NULL(0), 
  1361 ;;  buf             2   20[COMRAM] PTR unsigned char 
  1362 ;;		 -> dbuf(32), 
  1363 ;;  p               2   22[COMRAM] int 
  1364 ;; Auto vars:     Size  Location     Type
  1365 ;;  w               2   27[COMRAM] int 
  1366 ;;  i               2   25[COMRAM] int 
  1367 ;; Return value:  Size  Location     Type
  1368 ;;                  2   18[COMRAM] int 
  1369 ;; Registers used:
  1370 ;;		wreg, fsr1l, fsr1h, fsr2l, fsr2h, status,2, status,0, cstack
  1371 ;; Tracked objects:
  1372 ;;		On entry : 0/0
  1373 ;;		On exit  : 0/0
  1374 ;;		Unchanged: 0/0
  1375 ;; Data sizes:     COMRAM   BANK0   BANK1   BANK2   BANK3   BANK4   BANK5   BANK6   BANK7   BANK8   BANK9  BANK10  BANK1
      +1  BANK12  BANK13  BANK14  BANK15
  1376 ;;      Params:         6       0       0       0       0       0       0       0       0       0       0       0       
      +0       0       0       0       0
  1377 ;;      Locals:         4       0       0       0       0       0       0       0       0       0       0       0       
      +0       0       0       0       0
  1378 ;;      Temps:          1       0       0       0       0       0       0       0       0       0       0       0       
      +0       0       0       0       0
  1379 ;;      Totals:        11       0       0       0       0       0       0       0       0       0       0       0       
      +0       0       0       0       0
  1380 ;;Total ram usage:       11 bytes
  1381 ;; Hardware stack levels used:    1
  1382 ;; Hardware stack levels required when called:    4
  1383 ;; This function calls:
  1384 ;;		_fputc
  1385 ;;		_fputs
  1386 ;;		_strlen
  1387 ;; This function is called by:
  1388 ;;		_ctoa
  1389 ;; This function uses a non-reentrant model
  1390 ;;
  1391                           
  1392                           	psect	text5
  1393  00139A                     __ptext5:
  1394                           	opt callstack 0
  1395  00139A                     _pad:
  1396                           	opt callstack 22
  1397  00139A                     
  1398                           ;C:\Program Files (x86)\Microchip\xc8\v2.10\pic\sources\c99\common\doprnt.c: 72: static 
      +                          int pad(FILE *fp, char *buf, int p);C:\Program Files (x86)\Microchip\xc8\v2.10\pic\sourc
      +                          es\c99\common\doprnt.c: 73: {;C:\Program Files (x86)\Microchip\xc8\v2.10\pic\sources\c99
      +                          \common\doprnt.c: 74:     int i, w;;C:\Program Files (x86)\Microchip\xc8\v2.10\pic\sourc
      +                          es\c99\common\doprnt.c: 77:     if (flags & (1 << 0)) {
  1399  00139A  A050               	btfss	_flags^0,0,c
  1400  00139C  EFD2  F009         	goto	u351
  1401  0013A0  EFD4  F009         	goto	u350
  1402  0013A4                     u351:
  1403  0013A4  EFDE  F009         	goto	l1495
  1404  0013A8                     u350:
  1405  0013A8                     
  1406                           ;C:\Program Files (x86)\Microchip\xc8\v2.10\pic\sources\c99\common\doprnt.c: 78:        
      +                           fputs((const char *)buf, fp);
  1407  0013A8  C015  F00C         	movff	pad@buf,fputs@s
  1408  0013AC  C016  F00D         	movff	pad@buf+1,fputs@s+1
  1409  0013B0  C013  F00E         	movff	pad@fp,fputs@fp
  1410  0013B4  C014  F00F         	movff	pad@fp+1,fputs@fp+1
  1411  0013B8  ECD6  F00A         	call	_fputs	;wreg free
  1412  0013BC                     l1495:
  1413                           
  1414                           ;C:\Program Files (x86)\Microchip\xc8\v2.10\pic\sources\c99\common\doprnt.c: 82:     w =
      +                           (p < 0) ? 0 : p;
  1415  0013BC  BE18               	btfsc	(pad@p+1)^0,7,c
  1416  0013BE  EFE3  F009         	goto	u361
  1417  0013C2  EFE5  F009         	goto	u360
  1418  0013C6                     u361:
  1419  0013C6  EFEB  F009         	goto	l1499
  1420  0013CA                     u360:
  1421  0013CA  C017  F01C         	movff	pad@p,pad@w
  1422  0013CE  C018  F01D         	movff	pad@p+1,pad@w+1
  1423  0013D2  EFEF  F009         	goto	l356
  1424  0013D6                     l1499:
  1425  0013D6  0E00               	movlw	0
  1426  0013D8  6E1D               	movwf	(pad@w+1)^0,c
  1427  0013DA  0E00               	movlw	0
  1428  0013DC  6E1C               	movwf	pad@w^0,c
  1429  0013DE                     l356:
  1430                           
  1431                           ;C:\Program Files (x86)\Microchip\xc8\v2.10\pic\sources\c99\common\doprnt.c: 83:     i =
      +                           0;
  1432  0013DE  0E00               	movlw	0
  1433  0013E0  6E1B               	movwf	(pad@i+1)^0,c
  1434  0013E2  0E00               	movlw	0
  1435  0013E4  6E1A               	movwf	pad@i^0,c
  1436                           
  1437                           ;C:\Program Files (x86)\Microchip\xc8\v2.10\pic\sources\c99\common\doprnt.c: 84:     whi
      +                          le (i < w) {
  1438  0013E6  EF01  F00A         	goto	l1505
  1439  0013EA                     l1501:
  1440                           
  1441                           ;C:\Program Files (x86)\Microchip\xc8\v2.10\pic\sources\c99\common\doprnt.c: 85:        
      +                           fputc(' ', fp);
  1442  0013EA  0E00               	movlw	0
  1443  0013EC  6E04               	movwf	(fputc@c+1)^0,c
  1444  0013EE  0E20               	movlw	32
  1445  0013F0  6E03               	movwf	fputc@c^0,c
  1446  0013F2  C013  F005         	movff	pad@fp,fputc@fp
  1447  0013F6  C014  F006         	movff	pad@fp+1,fputc@fp+1
  1448  0013FA  EC2E  F00A         	call	_fputc	;wreg free
  1449  0013FE                     
  1450                           ;C:\Program Files (x86)\Microchip\xc8\v2.10\pic\sources\c99\common\doprnt.c: 86:        
      +                           ++i;
  1451  0013FE  4A1A               	infsnz	pad@i^0,f,c
  1452  001400  2A1B               	incf	(pad@i+1)^0,f,c
  1453  001402                     l1505:
  1454                           
  1455                           ;C:\Program Files (x86)\Microchip\xc8\v2.10\pic\sources\c99\common\doprnt.c: 84:     whi
      +                          le (i < w) {
  1456  001402  501C               	movf	pad@w^0,w,c
  1457  001404  5C1A               	subwf	pad@i^0,w,c
  1458  001406  501B               	movf	(pad@i+1)^0,w,c
  1459  001408  0A80               	xorlw	128
  1460  00140A  6E19               	movwf	??_pad^0,c
  1461  00140C  501D               	movf	(pad@w+1)^0,w,c
  1462  00140E  0A80               	xorlw	128
  1463  001410  5819               	subwfb	??_pad^0,w,c
  1464  001412  A0D8               	btfss	status,0,c
  1465  001414  EF0E  F00A         	goto	u371
  1466  001418  EF10  F00A         	goto	u370
  1467  00141C                     u371:
  1468  00141C  EFF5  F009         	goto	l1501
  1469  001420                     u370:
  1470  001420                     
  1471                           ;C:\Program Files (x86)\Microchip\xc8\v2.10\pic\sources\c99\common\doprnt.c: 90:     if 
      +                          (!(flags & (1 << 0))) {
  1472  001420  B050               	btfsc	_flags^0,0,c
  1473  001422  EF15  F00A         	goto	u381
  1474  001426  EF17  F00A         	goto	u380
  1475  00142A                     u381:
  1476  00142A  EF21  F00A         	goto	l1509
  1477  00142E                     u380:
  1478  00142E                     
  1479                           ;C:\Program Files (x86)\Microchip\xc8\v2.10\pic\sources\c99\common\doprnt.c: 91:        
      +                           fputs((const char *)buf, fp);
  1480  00142E  C015  F00C         	movff	pad@buf,fputs@s
  1481  001432  C016  F00D         	movff	pad@buf+1,fputs@s+1
  1482  001436  C013  F00E         	movff	pad@fp,fputs@fp
  1483  00143A  C014  F00F         	movff	pad@fp+1,fputs@fp+1
  1484  00143E  ECD6  F00A         	call	_fputs	;wreg free
  1485  001442                     l1509:
  1486                           
  1487                           ;C:\Program Files (x86)\Microchip\xc8\v2.10\pic\sources\c99\common\doprnt.c: 94:     ret
      +                          urn strlen(buf) + w;
  1488  001442  C015  F001         	movff	pad@buf,strlen@s
  1489  001446  C016  F002         	movff	pad@buf+1,strlen@s+1
  1490  00144A  EC17  F00B         	call	_strlen	;wreg free
  1491  00144E  501C               	movf	pad@w^0,w,c
  1492  001450  2401               	addwf	?_strlen^0,w,c
  1493  001452  6E13               	movwf	?_pad^0,c
  1494  001454  501D               	movf	(pad@w+1)^0,w,c
  1495  001456  2002               	addwfc	(?_strlen+1)^0,w,c
  1496  001458  6E14               	movwf	(?_pad+1)^0,c
  1497  00145A  0012               	return		;funcret
  1498  00145C                     __end_of_pad:
  1499                           	opt callstack 0
  1500                           
  1501 ;; *************** function _strlen *****************
  1502 ;; Defined at:
  1503 ;;		line 5 in file "C:\Program Files (x86)\Microchip\xc8\v2.10\pic\sources\c99\common\strlen.c"
  1504 ;; Parameters:    Size  Location     Type
  1505 ;;  s               2    0[COMRAM] PTR const unsigned char 
  1506 ;;		 -> dbuf(32), 
  1507 ;; Auto vars:     Size  Location     Type
  1508 ;;  a               2    2[COMRAM] PTR const unsigned char 
  1509 ;;		 -> dbuf(32), 
  1510 ;; Return value:  Size  Location     Type
  1511 ;;                  2    0[COMRAM] unsigned int 
  1512 ;; Registers used:
  1513 ;;		wreg, fsr2l, fsr2h, status,2, status,0
  1514 ;; Tracked objects:
  1515 ;;		On entry : 0/0
  1516 ;;		On exit  : 0/0
  1517 ;;		Unchanged: 0/0
  1518 ;; Data sizes:     COMRAM   BANK0   BANK1   BANK2   BANK3   BANK4   BANK5   BANK6   BANK7   BANK8   BANK9  BANK10  BANK1
      +1  BANK12  BANK13  BANK14  BANK15
  1519 ;;      Params:         2       0       0       0       0       0       0       0       0       0       0       0       
      +0       0       0       0       0
  1520 ;;      Locals:         2       0       0       0       0       0       0       0       0       0       0       0       
      +0       0       0       0       0
  1521 ;;      Temps:          0       0       0       0       0       0       0       0       0       0       0       0       
      +0       0       0       0       0
  1522 ;;      Totals:         4       0       0       0       0       0       0       0       0       0       0       0       
      +0       0       0       0       0
  1523 ;;Total ram usage:        4 bytes
  1524 ;; Hardware stack levels used:    1
  1525 ;; This function calls:
  1526 ;;		Nothing
  1527 ;; This function is called by:
  1528 ;;		_pad
  1529 ;; This function uses a non-reentrant model
  1530 ;;
  1531                           
  1532                           	psect	text6
  1533  00162E                     __ptext6:
  1534                           	opt callstack 0
  1535  00162E                     _strlen:
  1536                           	opt callstack 25
  1537  00162E  C001  F003         	movff	strlen@s,strlen@a
  1538  001632  C002  F004         	movff	strlen@s+1,strlen@a+1
  1539  001636  EF1F  F00B         	goto	l1485
  1540  00163A                     l1483:
  1541  00163A  4A01               	infsnz	strlen@s^0,f,c
  1542  00163C  2A02               	incf	(strlen@s+1)^0,f,c
  1543  00163E                     l1485:
  1544  00163E  C001  FFD9         	movff	strlen@s,fsr2l
  1545  001642  C002  FFDA         	movff	strlen@s+1,fsr2h
  1546  001646  50DF               	movf	indf2,w,c
  1547  001648  A4D8               	btfss	status,2,c
  1548  00164A  EF29  F00B         	goto	u341
  1549  00164E  EF2B  F00B         	goto	u340
  1550  001652                     u341:
  1551  001652  EF1D  F00B         	goto	l1483
  1552  001656                     u340:
  1553  001656  5003               	movf	strlen@a^0,w,c
  1554  001658  5C01               	subwf	strlen@s^0,w,c
  1555  00165A  6E01               	movwf	?_strlen^0,c
  1556  00165C  5004               	movf	(strlen@a+1)^0,w,c
  1557  00165E  5802               	subwfb	(strlen@s+1)^0,w,c
  1558  001660  6E02               	movwf	(?_strlen+1)^0,c
  1559  001662  0012               	return		;funcret
  1560  001664                     __end_of_strlen:
  1561                           	opt callstack 0
  1562                           
  1563 ;; *************** function _fputs *****************
  1564 ;; Defined at:
  1565 ;;		line 8 in file "C:\Program Files (x86)\Microchip\xc8\v2.10\pic\sources\c99\common\nf_fputs.c"
  1566 ;; Parameters:    Size  Location     Type
  1567 ;;  s               2   11[COMRAM] PTR const unsigned char 
  1568 ;;		 -> dbuf(32), 
  1569 ;;  fp              2   13[COMRAM] PTR struct _IO_FILE
  1570 ;;		 -> NULL(0), 
  1571 ;; Auto vars:     Size  Location     Type
  1572 ;;  i               2   16[COMRAM] int 
  1573 ;;  c               1   15[COMRAM] unsigned char 
  1574 ;; Return value:  Size  Location     Type
  1575 ;;                  2   11[COMRAM] int 
  1576 ;; Registers used:
  1577 ;;		wreg, fsr1l, fsr1h, fsr2l, fsr2h, status,2, status,0, cstack
  1578 ;; Tracked objects:
  1579 ;;		On entry : 0/0
  1580 ;;		On exit  : 0/0
  1581 ;;		Unchanged: 0/0
  1582 ;; Data sizes:     COMRAM   BANK0   BANK1   BANK2   BANK3   BANK4   BANK5   BANK6   BANK7   BANK8   BANK9  BANK10  BANK1
      +1  BANK12  BANK13  BANK14  BANK15
  1583 ;;      Params:         4       0       0       0       0       0       0       0       0       0       0       0       
      +0       0       0       0       0
  1584 ;;      Locals:         3       0       0       0       0       0       0       0       0       0       0       0       
      +0       0       0       0       0
  1585 ;;      Temps:          0       0       0       0       0       0       0       0       0       0       0       0       
      +0       0       0       0       0
  1586 ;;      Totals:         7       0       0       0       0       0       0       0       0       0       0       0       
      +0       0       0       0       0
  1587 ;;Total ram usage:        7 bytes
  1588 ;; Hardware stack levels used:    1
  1589 ;; Hardware stack levels required when called:    3
  1590 ;; This function calls:
  1591 ;;		_fputc
  1592 ;; This function is called by:
  1593 ;;		_pad
  1594 ;; This function uses a non-reentrant model
  1595 ;;
  1596                           
  1597                           	psect	text7
  1598  0015AC                     __ptext7:
  1599                           	opt callstack 0
  1600  0015AC                     _fputs:
  1601                           	opt callstack 22
  1602  0015AC  0E00               	movlw	0
  1603  0015AE  6E12               	movwf	(fputs@i+1)^0,c
  1604  0015B0  0E00               	movlw	0
  1605  0015B2  6E11               	movwf	fputs@i^0,c
  1606  0015B4  EFE7  F00A         	goto	l1479
  1607  0015B8                     l1475:
  1608  0015B8  C010  F003         	movff	fputs@c,fputc@c
  1609  0015BC  6A04               	clrf	(fputc@c+1)^0,c
  1610  0015BE  C00E  F005         	movff	fputs@fp,fputc@fp
  1611  0015C2  C00F  F006         	movff	fputs@fp+1,fputc@fp+1
  1612  0015C6  EC2E  F00A         	call	_fputc	;wreg free
  1613  0015CA  4A11               	infsnz	fputs@i^0,f,c
  1614  0015CC  2A12               	incf	(fputs@i+1)^0,f,c
  1615  0015CE                     l1479:
  1616  0015CE  5011               	movf	fputs@i^0,w,c
  1617  0015D0  240C               	addwf	fputs@s^0,w,c
  1618  0015D2  6ED9               	movwf	fsr2l,c
  1619  0015D4  5012               	movf	(fputs@i+1)^0,w,c
  1620  0015D6  200D               	addwfc	(fputs@s+1)^0,w,c
  1621  0015D8  6EDA               	movwf	fsr2h,c
  1622  0015DA  50DF               	movf	indf2,w,c
  1623  0015DC  6E10               	movwf	fputs@c^0,c
  1624  0015DE  5010               	movf	fputs@c^0,w,c
  1625  0015E0  A4D8               	btfss	status,2,c
  1626  0015E2  EFF5  F00A         	goto	u331
  1627  0015E6  EFF7  F00A         	goto	u330
  1628  0015EA                     u331:
  1629  0015EA  EFDC  F00A         	goto	l1475
  1630  0015EE                     u330:
  1631  0015EE  0012               	return		;funcret
  1632  0015F0                     __end_of_fputs:
  1633                           	opt callstack 0
  1634                           
  1635 ;; *************** function _fputc *****************
  1636 ;; Defined at:
  1637 ;;		line 8 in file "C:\Program Files (x86)\Microchip\xc8\v2.10\pic\sources\c99\common\nf_fputc.c"
  1638 ;; Parameters:    Size  Location     Type
  1639 ;;  c               2    2[COMRAM] int 
  1640 ;;  fp              2    4[COMRAM] PTR struct _IO_FILE
  1641 ;;		 -> NULL(0), 
  1642 ;; Auto vars:     Size  Location     Type
  1643 ;;		None
  1644 ;; Return value:  Size  Location     Type
  1645 ;;                  2    2[COMRAM] int 
  1646 ;; Registers used:
  1647 ;;		wreg, fsr1l, fsr1h, fsr2l, fsr2h, status,2, status,0, cstack
  1648 ;; Tracked objects:
  1649 ;;		On entry : 0/0
  1650 ;;		On exit  : 0/0
  1651 ;;		Unchanged: 0/0
  1652 ;; Data sizes:     COMRAM   BANK0   BANK1   BANK2   BANK3   BANK4   BANK5   BANK6   BANK7   BANK8   BANK9  BANK10  BANK1
      +1  BANK12  BANK13  BANK14  BANK15
  1653 ;;      Params:         4       0       0       0       0       0       0       0       0       0       0       0       
      +0       0       0       0       0
  1654 ;;      Locals:         0       0       0       0       0       0       0       0       0       0       0       0       
      +0       0       0       0       0
  1655 ;;      Temps:          5       0       0       0       0       0       0       0       0       0       0       0       
      +0       0       0       0       0
  1656 ;;      Totals:         9       0       0       0       0       0       0       0       0       0       0       0       
      +0       0       0       0       0
  1657 ;;Total ram usage:        9 bytes
  1658 ;; Hardware stack levels used:    1
  1659 ;; Hardware stack levels required when called:    2
  1660 ;; This function calls:
  1661 ;;		_putch
  1662 ;; This function is called by:
  1663 ;;		_pad
  1664 ;;		_vfpfcnvrt
  1665 ;;		_fputs
  1666 ;; This function uses a non-reentrant model
  1667 ;;
  1668                           
  1669                           	psect	text8
  1670  00145C                     __ptext8:
  1671                           	opt callstack 0
  1672  00145C                     _fputc:
  1673                           	opt callstack 25
  1674  00145C  5005               	movf	fputc@fp^0,w,c
  1675  00145E  1006               	iorwf	(fputc@fp+1)^0,w,c
  1676  001460  B4D8               	btfsc	status,2,c
  1677  001462  EF35  F00A         	goto	u291
  1678  001466  EF37  F00A         	goto	u290
  1679  00146A                     u291:
  1680  00146A  EF40  F00A         	goto	l1463
  1681  00146E                     u290:
  1682  00146E  5005               	movf	fputc@fp^0,w,c
  1683  001470  1006               	iorwf	(fputc@fp+1)^0,w,c
  1684  001472  A4D8               	btfss	status,2,c
  1685  001474  EF3E  F00A         	goto	u301
  1686  001478  EF40  F00A         	goto	u300
  1687  00147C                     u301:
  1688  00147C  EF45  F00A         	goto	l1465
  1689  001480                     u300:
  1690  001480                     l1463:
  1691  001480  5003               	movf	fputc@c^0,w,c
  1692  001482  ECF6  F00B         	call	_putch
  1693  001486  EF78  F00A         	goto	l1066
  1694  00148A                     l1465:
  1695  00148A  EE20 F004          	lfsr	2,4
  1696  00148E  5005               	movf	fputc@fp^0,w,c
  1697  001490  26D9               	addwf	fsr2l,f,c
  1698  001492  5006               	movf	(fputc@fp+1)^0,w,c
  1699  001494  22DA               	addwfc	fsr2h,f,c
  1700  001496  50DE               	movf	postinc2,w,c
  1701  001498  10DE               	iorwf	postinc2,w,c
  1702  00149A  B4D8               	btfsc	status,2,c
  1703  00149C  EF52  F00A         	goto	u311
  1704  0014A0  EF54  F00A         	goto	u310
  1705  0014A4                     u311:
  1706  0014A4  EF6F  F00A         	goto	l1469
  1707  0014A8                     u310:
  1708  0014A8  EE20 F004          	lfsr	2,4
  1709  0014AC  5005               	movf	fputc@fp^0,w,c
  1710  0014AE  26D9               	addwf	fsr2l,f,c
  1711  0014B0  5006               	movf	(fputc@fp+1)^0,w,c
  1712  0014B2  22DA               	addwfc	fsr2h,f,c
  1713  0014B4  EE10 F002          	lfsr	1,2
  1714  0014B8  5005               	movf	fputc@fp^0,w,c
  1715  0014BA  26E1               	addwf	fsr1l,f,c
  1716  0014BC  5006               	movf	(fputc@fp+1)^0,w,c
  1717  0014BE  22E2               	addwfc	fsr1h,f,c
  1718  0014C0  50DE               	movf	postinc2,w,c
  1719  0014C2  5CE6               	subwf	postinc1,w,c
  1720  0014C4  50E6               	movf	postinc1,w,c
  1721  0014C6  0A80               	xorlw	128
  1722  0014C8  6E0B               	movwf	(??_fputc+4)^0,c
  1723  0014CA  50DE               	movf	postinc2,w,c
  1724  0014CC  0A80               	xorlw	128
  1725  0014CE  580B               	subwfb	(??_fputc+4)^0,w,c
  1726  0014D0  B0D8               	btfsc	status,0,c
  1727  0014D2  EF6D  F00A         	goto	u321
  1728  0014D6  EF6F  F00A         	goto	u320
  1729  0014DA                     u321:
  1730  0014DA  EF78  F00A         	goto	l1066
  1731  0014DE                     u320:
  1732  0014DE                     l1469:
  1733  0014DE  EE20 F002          	lfsr	2,2
  1734  0014E2  5005               	movf	fputc@fp^0,w,c
  1735  0014E4  26D9               	addwf	fsr2l,f,c
  1736  0014E6  5006               	movf	(fputc@fp+1)^0,w,c
  1737  0014E8  22DA               	addwfc	fsr2h,f,c
  1738  0014EA  2ADE               	incf	postinc2,f,c
  1739  0014EC  0E00               	movlw	0
  1740  0014EE  22DD               	addwfc	postdec2,f,c
  1741  0014F0                     l1066:
  1742  0014F0  0012               	return		;funcret
  1743  0014F2                     __end_of_fputc:
  1744                           	opt callstack 0
  1745                           
  1746 ;; *************** function _putch *****************
  1747 ;; Defined at:
  1748 ;;		line 146 in file "mcc_generated_files/eusart1.c"
  1749 ;; Parameters:    Size  Location     Type
  1750 ;;  txData          1    wreg     unsigned char 
  1751 ;; Auto vars:     Size  Location     Type
  1752 ;;  txData          1    1[COMRAM] unsigned char 
  1753 ;; Return value:  Size  Location     Type
  1754 ;;                  1    wreg      void 
  1755 ;; Registers used:
  1756 ;;		wreg, status,2, cstack
  1757 ;; Tracked objects:
  1758 ;;		On entry : 0/0
  1759 ;;		On exit  : 0/0
  1760 ;;		Unchanged: 0/0
  1761 ;; Data sizes:     COMRAM   BANK0   BANK1   BANK2   BANK3   BANK4   BANK5   BANK6   BANK7   BANK8   BANK9  BANK10  BANK1
      +1  BANK12  BANK13  BANK14  BANK15
  1762 ;;      Params:         0       0       0       0       0       0       0       0       0       0       0       0       
      +0       0       0       0       0
  1763 ;;      Locals:         1       0       0       0       0       0       0       0       0       0       0       0       
      +0       0       0       0       0
  1764 ;;      Temps:          0       0       0       0       0       0       0       0       0       0       0       0       
      +0       0       0       0       0
  1765 ;;      Totals:         1       0       0       0       0       0       0       0       0       0       0       0       
      +0       0       0       0       0
  1766 ;;Total ram usage:        1 bytes
  1767 ;; Hardware stack levels used:    1
  1768 ;; Hardware stack levels required when called:    1
  1769 ;; This function calls:
  1770 ;;		_EUSART1_Write
  1771 ;; This function is called by:
  1772 ;;		_fputc
  1773 ;; This function uses a non-reentrant model
  1774 ;;
  1775                           
  1776                           	psect	text9
  1777  0017EC                     __ptext9:
  1778                           	opt callstack 0
  1779  0017EC                     _putch:
  1780                           	opt callstack 25
  1781                           
  1782                           ;incstack = 0
  1783                           ;putch@txData stored from wreg
  1784  0017EC  6E02               	movwf	putch@txData^0,c
  1785  0017EE                     
  1786                           ;mcc_generated_files/eusart1.c: 146: void putch(char txData);mcc_generated_files/eusart1
      +                          .c: 147: {;mcc_generated_files/eusart1.c: 148:     EUSART1_Write(txData);
  1787  0017EE  5002               	movf	putch@txData^0,w,c
  1788  0017F0  ECD2  F00B         	call	_EUSART1_Write
  1789  0017F4  0012               	return		;funcret
  1790  0017F6                     __end_of_putch:
  1791                           	opt callstack 0
  1792                           
  1793 ;; *************** function _EUSART1_Write *****************
  1794 ;; Defined at:
  1795 ;;		line 132 in file "mcc_generated_files/eusart1.c"
  1796 ;; Parameters:    Size  Location     Type
  1797 ;;  txData          1    wreg     unsigned char 
  1798 ;; Auto vars:     Size  Location     Type
  1799 ;;  txData          1    0[COMRAM] unsigned char 
  1800 ;; Return value:  Size  Location     Type
  1801 ;;                  1    wreg      void 
  1802 ;; Registers used:
  1803 ;;		wreg
  1804 ;; Tracked objects:
  1805 ;;		On entry : 0/0
  1806 ;;		On exit  : 0/0
  1807 ;;		Unchanged: 0/0
  1808 ;; Data sizes:     COMRAM   BANK0   BANK1   BANK2   BANK3   BANK4   BANK5   BANK6   BANK7   BANK8   BANK9  BANK10  BANK1
      +1  BANK12  BANK13  BANK14  BANK15
  1809 ;;      Params:         0       0       0       0       0       0       0       0       0       0       0       0       
      +0       0       0       0       0
  1810 ;;      Locals:         1       0       0       0       0       0       0       0       0       0       0       0       
      +0       0       0       0       0
  1811 ;;      Temps:          0       0       0       0       0       0       0       0       0       0       0       0       
      +0       0       0       0       0
  1812 ;;      Totals:         1       0       0       0       0       0       0       0       0       0       0       0       
      +0       0       0       0       0
  1813 ;;Total ram usage:        1 bytes
  1814 ;; Hardware stack levels used:    1
  1815 ;; This function calls:
  1816 ;;		Nothing
  1817 ;; This function is called by:
  1818 ;;		_putch
  1819 ;; This function uses a non-reentrant model
  1820 ;;
  1821                           
  1822                           	psect	text10
  1823  0017A4                     __ptext10:
  1824                           	opt callstack 0
  1825  0017A4                     _EUSART1_Write:
  1826                           	opt callstack 25
  1827                           
  1828                           ;incstack = 0
  1829                           ;EUSART1_Write@txData stored from wreg
  1830  0017A4  6E01               	movwf	EUSART1_Write@txData^0,c
  1831  0017A6                     l139:
  1832                           
  1833                           ;mcc_generated_files/eusart1.c: 134:     while(0 == PIR1bits.TX1IF)
  1834  0017A6  A89E               	btfss	158,4,c	;volatile
  1835  0017A8  EFD8  F00B         	goto	u281
  1836  0017AC  EFDA  F00B         	goto	u280
  1837  0017B0                     u281:
  1838  0017B0  EFD3  F00B         	goto	l139
  1839  0017B4                     u280:
  1840  0017B4                     
  1841                           ;mcc_generated_files/eusart1.c: 138:     TXREG1 = txData;
  1842  0017B4  C001  FFAD         	movff	EUSART1_Write@txData,4013	;volatile
  1843  0017B8  0012               	return		;funcret
  1844  0017BA                     __end_of_EUSART1_Write:
  1845                           	opt callstack 0
  1846                           
  1847 ;; *************** function _SYSTEM_Initialize *****************
  1848 ;; Defined at:
  1849 ;;		line 50 in file "mcc_generated_files/mcc.c"
  1850 ;; Parameters:    Size  Location     Type
  1851 ;;		None
  1852 ;; Auto vars:     Size  Location     Type
  1853 ;;		None
  1854 ;; Return value:  Size  Location     Type
  1855 ;;                  1    wreg      void 
  1856 ;; Registers used:
  1857 ;;		wreg, status,2, status,0, cstack
  1858 ;; Tracked objects:
  1859 ;;		On entry : 0/0
  1860 ;;		On exit  : 0/0
  1861 ;;		Unchanged: 0/0
  1862 ;; Data sizes:     COMRAM   BANK0   BANK1   BANK2   BANK3   BANK4   BANK5   BANK6   BANK7   BANK8   BANK9  BANK10  BANK1
      +1  BANK12  BANK13  BANK14  BANK15
  1863 ;;      Params:         0       0       0       0       0       0       0       0       0       0       0       0       
      +0       0       0       0       0
  1864 ;;      Locals:         0       0       0       0       0       0       0       0       0       0       0       0       
      +0       0       0       0       0
  1865 ;;      Temps:          0       0       0       0       0       0       0       0       0       0       0       0       
      +0       0       0       0       0
  1866 ;;      Totals:         0       0       0       0       0       0       0       0       0       0       0       0       
      +0       0       0       0       0
  1867 ;;Total ram usage:        0 bytes
  1868 ;; Hardware stack levels used:    1
  1869 ;; Hardware stack levels required when called:    2
  1870 ;; This function calls:
  1871 ;;		_EPWM1_Initialize
  1872 ;;		_EPWM2_Initialize
  1873 ;;		_EUSART1_Initialize
  1874 ;;		_OSCILLATOR_Initialize
  1875 ;;		_PIN_MANAGER_Initialize
  1876 ;;		_TMR0_Initialize
  1877 ;;		_TMR1_Initialize
  1878 ;;		_TMR2_Initialize
  1879 ;; This function is called by:
  1880 ;;		_main
  1881 ;; This function uses a non-reentrant model
  1882 ;;
  1883                           
  1884                           	psect	text11
  1885  001708                     __ptext11:
  1886                           	opt callstack 0
  1887  001708                     _SYSTEM_Initialize:
  1888                           	opt callstack 28
  1889  001708                     
  1890                           ;mcc_generated_files/mcc.c: 53:     PIN_MANAGER_Initialize();
  1891  001708  EC32  F00B         	call	_PIN_MANAGER_Initialize	;wreg free
  1892                           
  1893                           ;mcc_generated_files/mcc.c: 54:     OSCILLATOR_Initialize();
  1894  00170C  ECEF  F00B         	call	_OSCILLATOR_Initialize	;wreg free
  1895                           
  1896                           ;mcc_generated_files/mcc.c: 55:     EPWM2_Initialize();
  1897  001710  EC95  F00B         	call	_EPWM2_Initialize	;wreg free
  1898                           
  1899                           ;mcc_generated_files/mcc.c: 56:     EPWM1_Initialize();
  1900  001714  ECA5  F00B         	call	_EPWM1_Initialize	;wreg free
  1901                           
  1902                           ;mcc_generated_files/mcc.c: 57:     TMR2_Initialize();
  1903  001718  ECE7  F00B         	call	_TMR2_Initialize	;wreg free
  1904                           
  1905                           ;mcc_generated_files/mcc.c: 58:     TMR1_Initialize();
  1906  00171C  ECC4  F00B         	call	_TMR1_Initialize	;wreg free
  1907  001720                     
  1908                           ;mcc_generated_files/mcc.c: 59:     TMR0_Initialize();
  1909  001720  EC49  F00B         	call	_TMR0_Initialize	;wreg free
  1910  001724                     
  1911                           ;mcc_generated_files/mcc.c: 60:     EUSART1_Initialize();
  1912  001724  ECF8  F00A         	call	_EUSART1_Initialize	;wreg free
  1913  001728  0012               	return		;funcret
  1914  00172A                     __end_of_SYSTEM_Initialize:
  1915                           	opt callstack 0
  1916                           
  1917 ;; *************** function _TMR2_Initialize *****************
  1918 ;; Defined at:
  1919 ;;		line 62 in file "mcc_generated_files/tmr2.c"
  1920 ;; Parameters:    Size  Location     Type
  1921 ;;		None
  1922 ;; Auto vars:     Size  Location     Type
  1923 ;;		None
  1924 ;; Return value:  Size  Location     Type
  1925 ;;                  1    wreg      void 
  1926 ;; Registers used:
  1927 ;;		wreg, status,2
  1928 ;; Tracked objects:
  1929 ;;		On entry : 0/0
  1930 ;;		On exit  : 0/0
  1931 ;;		Unchanged: 0/0
  1932 ;; Data sizes:     COMRAM   BANK0   BANK1   BANK2   BANK3   BANK4   BANK5   BANK6   BANK7   BANK8   BANK9  BANK10  BANK1
      +1  BANK12  BANK13  BANK14  BANK15
  1933 ;;      Params:         0       0       0       0       0       0       0       0       0       0       0       0       
      +0       0       0       0       0
  1934 ;;      Locals:         0       0       0       0       0       0       0       0       0       0       0       0       
      +0       0       0       0       0
  1935 ;;      Temps:          0       0       0       0       0       0       0       0       0       0       0       0       
      +0       0       0       0       0
  1936 ;;      Totals:         0       0       0       0       0       0       0       0       0       0       0       0       
      +0       0       0       0       0
  1937 ;;Total ram usage:        0 bytes
  1938 ;; Hardware stack levels used:    1
  1939 ;; This function calls:
  1940 ;;		Nothing
  1941 ;; This function is called by:
  1942 ;;		_SYSTEM_Initialize
  1943 ;; This function uses a non-reentrant model
  1944 ;;
  1945                           
  1946                           	psect	text12
  1947  0017CE                     __ptext12:
  1948                           	opt callstack 0
  1949  0017CE                     _TMR2_Initialize:
  1950                           	opt callstack 29
  1951  0017CE                     
  1952                           ;mcc_generated_files/tmr2.c: 67:     PR2 = 0x00;
  1953  0017CE  0E00               	movlw	0
  1954  0017D0  6EBB               	movwf	187,c	;volatile
  1955                           
  1956                           ;mcc_generated_files/tmr2.c: 70:     TMR2 = 0x00;
  1957  0017D2  0E00               	movlw	0
  1958  0017D4  6EBC               	movwf	188,c	;volatile
  1959  0017D6                     
  1960                           ;mcc_generated_files/tmr2.c: 73:     PIR1bits.TMR2IF = 0;
  1961  0017D6  929E               	bcf	158,1,c	;volatile
  1962                           
  1963                           ;mcc_generated_files/tmr2.c: 76:     T2CON = 0x06;
  1964  0017D8  0E06               	movlw	6
  1965  0017DA  6EBA               	movwf	186,c	;volatile
  1966  0017DC  0012               	return		;funcret
  1967  0017DE                     __end_of_TMR2_Initialize:
  1968                           	opt callstack 0
  1969                           
  1970 ;; *************** function _TMR1_Initialize *****************
  1971 ;; Defined at:
  1972 ;;		line 63 in file "mcc_generated_files/tmr1.c"
  1973 ;; Parameters:    Size  Location     Type
  1974 ;;		None
  1975 ;; Auto vars:     Size  Location     Type
  1976 ;;		None
  1977 ;; Return value:  Size  Location     Type
  1978 ;;                  1    wreg      void 
  1979 ;; Registers used:
  1980 ;;		wreg, status,2
  1981 ;; Tracked objects:
  1982 ;;		On entry : 0/0
  1983 ;;		On exit  : 0/0
  1984 ;;		Unchanged: 0/0
  1985 ;; Data sizes:     COMRAM   BANK0   BANK1   BANK2   BANK3   BANK4   BANK5   BANK6   BANK7   BANK8   BANK9  BANK10  BANK1
      +1  BANK12  BANK13  BANK14  BANK15
  1986 ;;      Params:         0       0       0       0       0       0       0       0       0       0       0       0       
      +0       0       0       0       0
  1987 ;;      Locals:         0       0       0       0       0       0       0       0       0       0       0       0       
      +0       0       0       0       0
  1988 ;;      Temps:          0       0       0       0       0       0       0       0       0       0       0       0       
      +0       0       0       0       0
  1989 ;;      Totals:         0       0       0       0       0       0       0       0       0       0       0       0       
      +0       0       0       0       0
  1990 ;;Total ram usage:        0 bytes
  1991 ;; Hardware stack levels used:    1
  1992 ;; This function calls:
  1993 ;;		Nothing
  1994 ;; This function is called by:
  1995 ;;		_SYSTEM_Initialize
  1996 ;; This function uses a non-reentrant model
  1997 ;;
  1998                           
  1999                           	psect	text13
  2000  001788                     __ptext13:
  2001                           	opt callstack 0
  2002  001788                     _TMR1_Initialize:
  2003                           	opt callstack 29
  2004  001788                     
  2005                           ;mcc_generated_files/tmr1.c: 68:     T1GCON = 0x00;
  2006  001788  0E00               	movlw	0
  2007  00178A  6ECC               	movwf	204,c	;volatile
  2008                           
  2009                           ;mcc_generated_files/tmr1.c: 71:     TMR1H = 0x00;
  2010  00178C  0E00               	movlw	0
  2011  00178E  6ECF               	movwf	207,c	;volatile
  2012                           
  2013                           ;mcc_generated_files/tmr1.c: 74:     TMR1L = 0x00;
  2014  001790  0E00               	movlw	0
  2015  001792  6ECE               	movwf	206,c	;volatile
  2016  001794                     
  2017                           ;mcc_generated_files/tmr1.c: 77:     timer1ReloadVal=TMR1;
  2018  001794  CFCE F040          	movff	4046,_timer1ReloadVal	;volatile
  2019  001798  CFCF F041          	movff	4047,_timer1ReloadVal+1	;volatile
  2020  00179C                     
  2021                           ;mcc_generated_files/tmr1.c: 80:     PIR1bits.TMR1IF = 0;
  2022  00179C  909E               	bcf	158,0,c	;volatile
  2023                           
  2024                           ;mcc_generated_files/tmr1.c: 83:     T1CON = 0x01;
  2025  00179E  0E01               	movlw	1
  2026  0017A0  6ECD               	movwf	205,c	;volatile
  2027  0017A2  0012               	return		;funcret
  2028  0017A4                     __end_of_TMR1_Initialize:
  2029                           	opt callstack 0
  2030                           
  2031 ;; *************** function _TMR0_Initialize *****************
  2032 ;; Defined at:
  2033 ;;		line 66 in file "mcc_generated_files/tmr0.c"
  2034 ;; Parameters:    Size  Location     Type
  2035 ;;		None
  2036 ;; Auto vars:     Size  Location     Type
  2037 ;;		None
  2038 ;; Return value:  Size  Location     Type
  2039 ;;                  1    wreg      void 
  2040 ;; Registers used:
  2041 ;;		wreg, status,2, status,0
  2042 ;; Tracked objects:
  2043 ;;		On entry : 0/0
  2044 ;;		On exit  : 0/0
  2045 ;;		Unchanged: 0/0
  2046 ;; Data sizes:     COMRAM   BANK0   BANK1   BANK2   BANK3   BANK4   BANK5   BANK6   BANK7   BANK8   BANK9  BANK10  BANK1
      +1  BANK12  BANK13  BANK14  BANK15
  2047 ;;      Params:         0       0       0       0       0       0       0       0       0       0       0       0       
      +0       0       0       0       0
  2048 ;;      Locals:         0       0       0       0       0       0       0       0       0       0       0       0       
      +0       0       0       0       0
  2049 ;;      Temps:          2       0       0       0       0       0       0       0       0       0       0       0       
      +0       0       0       0       0
  2050 ;;      Totals:         2       0       0       0       0       0       0       0       0       0       0       0       
      +0       0       0       0       0
  2051 ;;Total ram usage:        2 bytes
  2052 ;; Hardware stack levels used:    1
  2053 ;; This function calls:
  2054 ;;		Nothing
  2055 ;; This function is called by:
  2056 ;;		_SYSTEM_Initialize
  2057 ;; This function uses a non-reentrant model
  2058 ;;
  2059                           
  2060                           	psect	text14
  2061  001692                     __ptext14:
  2062                           	opt callstack 0
  2063  001692                     _TMR0_Initialize:
  2064                           	opt callstack 29
  2065  001692                     
  2066                           ;mcc_generated_files/tmr0.c: 71:     T0CONbits.T08BIT = 0;
  2067  001692  9CD5               	bcf	213,6,c	;volatile
  2068  001694                     
  2069                           ;mcc_generated_files/tmr0.c: 74:     TMR0H = 0xFD;
  2070  001694  0EFD               	movlw	253
  2071  001696  6ED7               	movwf	215,c	;volatile
  2072                           
  2073                           ;mcc_generated_files/tmr0.c: 77:     TMR0L = 0x7F;
  2074  001698  0E7F               	movlw	127
  2075  00169A  6ED6               	movwf	214,c	;volatile
  2076  00169C                     
  2077                           ;mcc_generated_files/tmr0.c: 81:     timer0ReloadVal = (uint16_t)((TMR0H << 8) | TMR0L);
  2078  00169C  50D6               	movf	214,w,c	;volatile
  2079  00169E  CFD7 F001          	movff	4055,??_TMR0_Initialize	;volatile
  2080  0016A2  6A02               	clrf	(??_TMR0_Initialize+1)^0,c
  2081  0016A4  C001  F002         	movff	??_TMR0_Initialize,??_TMR0_Initialize+1
  2082  0016A8  6A01               	clrf	??_TMR0_Initialize^0,c
  2083  0016AA  1001               	iorwf	??_TMR0_Initialize^0,w,c
  2084  0016AC  6E42               	movwf	_timer0ReloadVal^0,c	;volatile
  2085  0016AE  5002               	movf	(??_TMR0_Initialize+1)^0,w,c
  2086  0016B0  6E43               	movwf	(_timer0ReloadVal+1)^0,c	;volatile
  2087  0016B2                     
  2088                           ;mcc_generated_files/tmr0.c: 84:     INTCONbits.TMR0IF = 0;
  2089  0016B2  94F2               	bcf	242,2,c	;volatile
  2090  0016B4                     
  2091                           ;mcc_generated_files/tmr0.c: 87:     T0CON = 0x9F;
  2092  0016B4  0E9F               	movlw	159
  2093  0016B6  6ED5               	movwf	213,c	;volatile
  2094  0016B8  0012               	return		;funcret
  2095  0016BA                     __end_of_TMR0_Initialize:
  2096                           	opt callstack 0
  2097                           
  2098 ;; *************** function _PIN_MANAGER_Initialize *****************
  2099 ;; Defined at:
  2100 ;;		line 55 in file "mcc_generated_files/pin_manager.c"
  2101 ;; Parameters:    Size  Location     Type
  2102 ;;		None
  2103 ;; Auto vars:     Size  Location     Type
  2104 ;;		None
  2105 ;; Return value:  Size  Location     Type
  2106 ;;                  1    wreg      void 
  2107 ;; Registers used:
  2108 ;;		wreg, status,2
  2109 ;; Tracked objects:
  2110 ;;		On entry : 0/0
  2111 ;;		On exit  : 0/0
  2112 ;;		Unchanged: 0/0
  2113 ;; Data sizes:     COMRAM   BANK0   BANK1   BANK2   BANK3   BANK4   BANK5   BANK6   BANK7   BANK8   BANK9  BANK10  BANK1
      +1  BANK12  BANK13  BANK14  BANK15
  2114 ;;      Params:         0       0       0       0       0       0       0       0       0       0       0       0       
      +0       0       0       0       0
  2115 ;;      Locals:         0       0       0       0       0       0       0       0       0       0       0       0       
      +0       0       0       0       0
  2116 ;;      Temps:          0       0       0       0       0       0       0       0       0       0       0       0       
      +0       0       0       0       0
  2117 ;;      Totals:         0       0       0       0       0       0       0       0       0       0       0       0       
      +0       0       0       0       0
  2118 ;;Total ram usage:        0 bytes
  2119 ;; Hardware stack levels used:    1
  2120 ;; This function calls:
  2121 ;;		Nothing
  2122 ;; This function is called by:
  2123 ;;		_SYSTEM_Initialize
  2124 ;; This function uses a non-reentrant model
  2125 ;;
  2126                           
  2127                           	psect	text15
  2128  001664                     __ptext15:
  2129                           	opt callstack 0
  2130  001664                     _PIN_MANAGER_Initialize:
  2131                           	opt callstack 29
  2132  001664                     
  2133                           ;mcc_generated_files/pin_manager.c: 60:     LATA = 0x00;
  2134  001664  0E00               	movlw	0
  2135  001666  6E89               	movwf	137,c	;volatile
  2136                           
  2137                           ;mcc_generated_files/pin_manager.c: 61:     LATB = 0x00;
  2138  001668  0E00               	movlw	0
  2139  00166A  6E8A               	movwf	138,c	;volatile
  2140                           
  2141                           ;mcc_generated_files/pin_manager.c: 62:     LATC = 0x00;
  2142  00166C  0E00               	movlw	0
  2143  00166E  6E8B               	movwf	139,c	;volatile
  2144                           
  2145                           ;mcc_generated_files/pin_manager.c: 67:     TRISA = 0xDD;
  2146  001670  0EDD               	movlw	221
  2147  001672  6E92               	movwf	146,c	;volatile
  2148                           
  2149                           ;mcc_generated_files/pin_manager.c: 68:     TRISB = 0x1F;
  2150  001674  0E1F               	movlw	31
  2151  001676  6E93               	movwf	147,c	;volatile
  2152                           
  2153                           ;mcc_generated_files/pin_manager.c: 69:     TRISC = 0xB9;
  2154  001678  0EB9               	movlw	185
  2155  00167A  6E94               	movwf	148,c	;volatile
  2156                           
  2157                           ;mcc_generated_files/pin_manager.c: 74:     ANSELC = 0x3C;
  2158  00167C  0E3C               	movlw	60
  2159  00167E  010F               	movlb	15	; () banked
  2160  001680  6F3A               	movwf	58,b	;volatile
  2161                           
  2162                           ;mcc_generated_files/pin_manager.c: 75:     ANSELB = 0x3F;
  2163  001682  0E3F               	movlw	63
  2164  001684  6F39               	movwf	57,b	;volatile
  2165                           
  2166                           ;mcc_generated_files/pin_manager.c: 76:     ANSELA = 0x2F;
  2167  001686  0E2F               	movlw	47
  2168  001688  6F38               	movwf	56,b	;volatile
  2169                           
  2170                           ;mcc_generated_files/pin_manager.c: 81:     WPUB = 0x00;
  2171  00168A  0E00               	movlw	0
  2172  00168C  6E61               	movwf	97,c	;volatile
  2173  00168E                     
  2174                           ; BSR set to: 15
  2175                           ;mcc_generated_files/pin_manager.c: 82:     INTCON2bits.nRBPU = 1;
  2176  00168E  8EF1               	bsf	241,7,c	;volatile
  2177  001690                     
  2178                           ; BSR set to: 15
  2179  001690  0012               	return		;funcret
  2180  001692                     __end_of_PIN_MANAGER_Initialize:
  2181                           	opt callstack 0
  2182                           
  2183 ;; *************** function _OSCILLATOR_Initialize *****************
  2184 ;; Defined at:
  2185 ;;		line 63 in file "mcc_generated_files/mcc.c"
  2186 ;; Parameters:    Size  Location     Type
  2187 ;;		None
  2188 ;; Auto vars:     Size  Location     Type
  2189 ;;		None
  2190 ;; Return value:  Size  Location     Type
  2191 ;;                  1    wreg      void 
  2192 ;; Registers used:
  2193 ;;		wreg, status,2
  2194 ;; Tracked objects:
  2195 ;;		On entry : 0/0
  2196 ;;		On exit  : 0/0
  2197 ;;		Unchanged: 0/0
  2198 ;; Data sizes:     COMRAM   BANK0   BANK1   BANK2   BANK3   BANK4   BANK5   BANK6   BANK7   BANK8   BANK9  BANK10  BANK1
      +1  BANK12  BANK13  BANK14  BANK15
  2199 ;;      Params:         0       0       0       0       0       0       0       0       0       0       0       0       
      +0       0       0       0       0
  2200 ;;      Locals:         0       0       0       0       0       0       0       0       0       0       0       0       
      +0       0       0       0       0
  2201 ;;      Temps:          0       0       0       0       0       0       0       0       0       0       0       0       
      +0       0       0       0       0
  2202 ;;      Totals:         0       0       0       0       0       0       0       0       0       0       0       0       
      +0       0       0       0       0
  2203 ;;Total ram usage:        0 bytes
  2204 ;; Hardware stack levels used:    1
  2205 ;; This function calls:
  2206 ;;		Nothing
  2207 ;; This function is called by:
  2208 ;;		_SYSTEM_Initialize
  2209 ;; This function uses a non-reentrant model
  2210 ;;
  2211                           
  2212                           	psect	text16
  2213  0017DE                     __ptext16:
  2214                           	opt callstack 0
  2215  0017DE                     _OSCILLATOR_Initialize:
  2216                           	opt callstack 29
  2217  0017DE                     
  2218                           ;mcc_generated_files/mcc.c: 66:     OSCCON = 0x30;
  2219  0017DE  0E30               	movlw	48
  2220  0017E0  6ED3               	movwf	211,c	;volatile
  2221                           
  2222                           ;mcc_generated_files/mcc.c: 68:     OSCCON2 = 0x04;
  2223  0017E2  0E04               	movlw	4
  2224  0017E4  6ED2               	movwf	210,c	;volatile
  2225                           
  2226                           ;mcc_generated_files/mcc.c: 70:     OSCTUNE = 0x00;
  2227  0017E6  0E00               	movlw	0
  2228  0017E8  6E9B               	movwf	155,c	;volatile
  2229  0017EA  0012               	return		;funcret
  2230  0017EC                     __end_of_OSCILLATOR_Initialize:
  2231                           	opt callstack 0
  2232                           
  2233 ;; *************** function _EUSART1_Initialize *****************
  2234 ;; Defined at:
  2235 ;;		line 66 in file "mcc_generated_files/eusart1.c"
  2236 ;; Parameters:    Size  Location     Type
  2237 ;;		None
  2238 ;; Auto vars:     Size  Location     Type
  2239 ;;		None
  2240 ;; Return value:  Size  Location     Type
  2241 ;;                  1    wreg      void 
  2242 ;; Registers used:
  2243 ;;		wreg, status,2, status,0, cstack
  2244 ;; Tracked objects:
  2245 ;;		On entry : 0/0
  2246 ;;		On exit  : 0/0
  2247 ;;		Unchanged: 0/0
  2248 ;; Data sizes:     COMRAM   BANK0   BANK1   BANK2   BANK3   BANK4   BANK5   BANK6   BANK7   BANK8   BANK9  BANK10  BANK1
      +1  BANK12  BANK13  BANK14  BANK15
  2249 ;;      Params:         0       0       0       0       0       0       0       0       0       0       0       0       
      +0       0       0       0       0
  2250 ;;      Locals:         0       0       0       0       0       0       0       0       0       0       0       0       
      +0       0       0       0       0
  2251 ;;      Temps:          0       0       0       0       0       0       0       0       0       0       0       0       
      +0       0       0       0       0
  2252 ;;      Totals:         0       0       0       0       0       0       0       0       0       0       0       0       
      +0       0       0       0       0
  2253 ;;Total ram usage:        0 bytes
  2254 ;; Hardware stack levels used:    1
  2255 ;; Hardware stack levels required when called:    1
  2256 ;; This function calls:
  2257 ;;		_EUSART1_SetErrorHandler
  2258 ;;		_EUSART1_SetFramingErrorHandler
  2259 ;;		_EUSART1_SetOverrunErrorHandler
  2260 ;; This function is called by:
  2261 ;;		_SYSTEM_Initialize
  2262 ;; This function uses a non-reentrant model
  2263 ;;
  2264                           
  2265                           	psect	text17
  2266  0015F0                     __ptext17:
  2267                           	opt callstack 0
  2268  0015F0                     _EUSART1_Initialize:
  2269                           	opt callstack 28
  2270  0015F0                     
  2271                           ;mcc_generated_files/eusart1.c: 71:     BAUDCON1 = 0x08;
  2272  0015F0  0E08               	movlw	8
  2273  0015F2  6EB8               	movwf	184,c	;volatile
  2274                           
  2275                           ;mcc_generated_files/eusart1.c: 74:     RCSTA1 = 0x90;
  2276  0015F4  0E90               	movlw	144
  2277  0015F6  6EAB               	movwf	171,c	;volatile
  2278                           
  2279                           ;mcc_generated_files/eusart1.c: 77:     TXSTA1 = 0x24;
  2280  0015F8  0E24               	movlw	36
  2281  0015FA  6EAC               	movwf	172,c	;volatile
  2282                           
  2283                           ;mcc_generated_files/eusart1.c: 80:     SPBRG1 = 0x19;
  2284  0015FC  0E19               	movlw	25
  2285  0015FE  6EAF               	movwf	175,c	;volatile
  2286                           
  2287                           ;mcc_generated_files/eusart1.c: 83:     SPBRGH1 = 0x00;
  2288  001600  0E00               	movlw	0
  2289  001602  6EB0               	movwf	176,c	;volatile
  2290  001604                     
  2291                           ;mcc_generated_files/eusart1.c: 86:     EUSART1_SetFramingErrorHandler(EUSART1_DefaultFr
      +                          amingErrorHandler);
  2292  001604  0E00               	movlw	0
  2293  001606  6E01               	movwf	EUSART1_SetFramingErrorHandler@interruptHandler^0,c
  2294  001608  0E00               	movlw	0
  2295  00160A  6E02               	movwf	(EUSART1_SetFramingErrorHandler@interruptHandler+1)^0,c
  2296  00160C  EC00  F00C         	call	_EUSART1_SetFramingErrorHandler	;wreg free
  2297  001610                     
  2298                           ;mcc_generated_files/eusart1.c: 87:     EUSART1_SetOverrunErrorHandler(EUSART1_DefaultOv
      +                          errunErrorHandler);
  2299  001610  0E00               	movlw	0
  2300  001612  6E01               	movwf	EUSART1_SetOverrunErrorHandler@interruptHandler^0,c
  2301  001614  0E00               	movlw	0
  2302  001616  6E02               	movwf	(EUSART1_SetOverrunErrorHandler@interruptHandler+1)^0,c
  2303  001618  ECFB  F00B         	call	_EUSART1_SetOverrunErrorHandler	;wreg free
  2304  00161C                     
  2305                           ;mcc_generated_files/eusart1.c: 88:     EUSART1_SetErrorHandler(EUSART1_DefaultErrorHand
      +                          ler);
  2306  00161C  0E00               	movlw	0
  2307  00161E  6E01               	movwf	EUSART1_SetErrorHandler@interruptHandler^0,c
  2308  001620  0E00               	movlw	0
  2309  001622  6E02               	movwf	(EUSART1_SetErrorHandler@interruptHandler+1)^0,c
  2310  001624  EC05  F00C         	call	_EUSART1_SetErrorHandler	;wreg free
  2311  001628                     
  2312                           ;mcc_generated_files/eusart1.c: 90:     eusart1RxLastError.status = 0;
  2313  001628  0E00               	movlw	0
  2314  00162A  6E52               	movwf	_eusart1RxLastError^0,c	;volatile
  2315  00162C  0012               	return		;funcret
  2316  00162E                     __end_of_EUSART1_Initialize:
  2317                           	opt callstack 0
  2318                           
  2319 ;; *************** function _EUSART1_SetOverrunErrorHandler *****************
  2320 ;; Defined at:
  2321 ;;		line 170 in file "mcc_generated_files/eusart1.c"
  2322 ;; Parameters:    Size  Location     Type
  2323 ;;  interruptHan    2    0[COMRAM] PTR FTN()void 
  2324 ;;		 -> EUSART1_DefaultOverrunErrorHandler(1), 
  2325 ;; Auto vars:     Size  Location     Type
  2326 ;;		None
  2327 ;; Return value:  Size  Location     Type
  2328 ;;                  1    wreg      void 
  2329 ;; Registers used:
  2330 ;;		wreg, status,2, status,0
  2331 ;; Tracked objects:
  2332 ;;		On entry : 0/0
  2333 ;;		On exit  : 0/0
  2334 ;;		Unchanged: 0/0
  2335 ;; Data sizes:     COMRAM   BANK0   BANK1   BANK2   BANK3   BANK4   BANK5   BANK6   BANK7   BANK8   BANK9  BANK10  BANK1
      +1  BANK12  BANK13  BANK14  BANK15
  2336 ;;      Params:         2       0       0       0       0       0       0       0       0       0       0       0       
      +0       0       0       0       0
  2337 ;;      Locals:         0       0       0       0       0       0       0       0       0       0       0       0       
      +0       0       0       0       0
  2338 ;;      Temps:          0       0       0       0       0       0       0       0       0       0       0       0       
      +0       0       0       0       0
  2339 ;;      Totals:         2       0       0       0       0       0       0       0       0       0       0       0       
      +0       0       0       0       0
  2340 ;;Total ram usage:        2 bytes
  2341 ;; Hardware stack levels used:    1
  2342 ;; This function calls:
  2343 ;;		Nothing
  2344 ;; This function is called by:
  2345 ;;		_EUSART1_Initialize
  2346 ;; This function uses a non-reentrant model
  2347 ;;
  2348                           
  2349                           	psect	text18
  2350  0017F6                     __ptext18:
  2351                           	opt callstack 0
  2352  0017F6                     _EUSART1_SetOverrunErrorHandler:
  2353                           	opt callstack 28
  2354  0017F6                     
  2355                           ;mcc_generated_files/eusart1.c: 171:     EUSART1_OverrunErrorHandler = interruptHandler;
  2356  0017F6  C001  F046         	movff	EUSART1_SetOverrunErrorHandler@interruptHandler,_EUSART1_OverrunErrorHandler
  2357  0017FA  C002  F047         	movff	EUSART1_SetOverrunErrorHandler@interruptHandler+1,_EUSART1_OverrunErrorHandler+1
  2358  0017FE  0012               	return		;funcret
  2359  001800                     __end_of_EUSART1_SetOverrunErrorHandler:
  2360                           	opt callstack 0
  2361                           
  2362 ;; *************** function _EUSART1_SetFramingErrorHandler *****************
  2363 ;; Defined at:
  2364 ;;		line 166 in file "mcc_generated_files/eusart1.c"
  2365 ;; Parameters:    Size  Location     Type
  2366 ;;  interruptHan    2    0[COMRAM] PTR FTN()void 
  2367 ;;		 -> EUSART1_DefaultFramingErrorHandler(1), 
  2368 ;; Auto vars:     Size  Location     Type
  2369 ;;		None
  2370 ;; Return value:  Size  Location     Type
  2371 ;;                  1    wreg      void 
  2372 ;; Registers used:
  2373 ;;		wreg, status,2, status,0
  2374 ;; Tracked objects:
  2375 ;;		On entry : 0/0
  2376 ;;		On exit  : 0/0
  2377 ;;		Unchanged: 0/0
  2378 ;; Data sizes:     COMRAM   BANK0   BANK1   BANK2   BANK3   BANK4   BANK5   BANK6   BANK7   BANK8   BANK9  BANK10  BANK1
      +1  BANK12  BANK13  BANK14  BANK15
  2379 ;;      Params:         2       0       0       0       0       0       0       0       0       0       0       0       
      +0       0       0       0       0
  2380 ;;      Locals:         0       0       0       0       0       0       0       0       0       0       0       0       
      +0       0       0       0       0
  2381 ;;      Temps:          0       0       0       0       0       0       0       0       0       0       0       0       
      +0       0       0       0       0
  2382 ;;      Totals:         2       0       0       0       0       0       0       0       0       0       0       0       
      +0       0       0       0       0
  2383 ;;Total ram usage:        2 bytes
  2384 ;; Hardware stack levels used:    1
  2385 ;; This function calls:
  2386 ;;		Nothing
  2387 ;; This function is called by:
  2388 ;;		_EUSART1_Initialize
  2389 ;; This function uses a non-reentrant model
  2390 ;;
  2391                           
  2392                           	psect	text19
  2393  001800                     __ptext19:
  2394                           	opt callstack 0
  2395  001800                     _EUSART1_SetFramingErrorHandler:
  2396                           	opt callstack 28
  2397  001800                     
  2398                           ;mcc_generated_files/eusart1.c: 167:     EUSART1_FramingErrorHandler = interruptHandler;
  2399  001800  C001  F048         	movff	EUSART1_SetFramingErrorHandler@interruptHandler,_EUSART1_FramingErrorHandler
  2400  001804  C002  F049         	movff	EUSART1_SetFramingErrorHandler@interruptHandler+1,_EUSART1_FramingErrorHandler+1
  2401  001808  0012               	return		;funcret
  2402  00180A                     __end_of_EUSART1_SetFramingErrorHandler:
  2403                           	opt callstack 0
  2404                           
  2405 ;; *************** function _EUSART1_SetErrorHandler *****************
  2406 ;; Defined at:
  2407 ;;		line 174 in file "mcc_generated_files/eusart1.c"
  2408 ;; Parameters:    Size  Location     Type
  2409 ;;  interruptHan    2    0[COMRAM] PTR FTN()void 
  2410 ;;		 -> EUSART1_DefaultErrorHandler(1), 
  2411 ;; Auto vars:     Size  Location     Type
  2412 ;;		None
  2413 ;; Return value:  Size  Location     Type
  2414 ;;                  1    wreg      void 
  2415 ;; Registers used:
  2416 ;;		wreg, status,2, status,0
  2417 ;; Tracked objects:
  2418 ;;		On entry : 0/0
  2419 ;;		On exit  : 0/0
  2420 ;;		Unchanged: 0/0
  2421 ;; Data sizes:     COMRAM   BANK0   BANK1   BANK2   BANK3   BANK4   BANK5   BANK6   BANK7   BANK8   BANK9  BANK10  BANK1
      +1  BANK12  BANK13  BANK14  BANK15
  2422 ;;      Params:         2       0       0       0       0       0       0       0       0       0       0       0       
      +0       0       0       0       0
  2423 ;;      Locals:         0       0       0       0       0       0       0       0       0       0       0       0       
      +0       0       0       0       0
  2424 ;;      Temps:          0       0       0       0       0       0       0       0       0       0       0       0       
      +0       0       0       0       0
  2425 ;;      Totals:         2       0       0       0       0       0       0       0       0       0       0       0       
      +0       0       0       0       0
  2426 ;;Total ram usage:        2 bytes
  2427 ;; Hardware stack levels used:    1
  2428 ;; This function calls:
  2429 ;;		Nothing
  2430 ;; This function is called by:
  2431 ;;		_EUSART1_Initialize
  2432 ;; This function uses a non-reentrant model
  2433 ;;
  2434                           
  2435                           	psect	text20
  2436  00180A                     __ptext20:
  2437                           	opt callstack 0
  2438  00180A                     _EUSART1_SetErrorHandler:
  2439                           	opt callstack 28
  2440  00180A                     
  2441                           ;mcc_generated_files/eusart1.c: 175:     EUSART1_ErrorHandler = interruptHandler;
  2442  00180A  C001  F044         	movff	EUSART1_SetErrorHandler@interruptHandler,_EUSART1_ErrorHandler
  2443  00180E  C002  F045         	movff	EUSART1_SetErrorHandler@interruptHandler+1,_EUSART1_ErrorHandler+1
  2444  001812  0012               	return		;funcret
  2445  001814                     __end_of_EUSART1_SetErrorHandler:
  2446                           	opt callstack 0
  2447                           
  2448 ;; *************** function _EPWM2_Initialize *****************
  2449 ;; Defined at:
  2450 ;;		line 64 in file "mcc_generated_files/epwm2.c"
  2451 ;; Parameters:    Size  Location     Type
  2452 ;;		None
  2453 ;; Auto vars:     Size  Location     Type
  2454 ;;		None
  2455 ;; Return value:  Size  Location     Type
  2456 ;;                  1    wreg      void 
  2457 ;; Registers used:
  2458 ;;		wreg, status,2
  2459 ;; Tracked objects:
  2460 ;;		On entry : 0/0
  2461 ;;		On exit  : 0/0
  2462 ;;		Unchanged: 0/0
  2463 ;; Data sizes:     COMRAM   BANK0   BANK1   BANK2   BANK3   BANK4   BANK5   BANK6   BANK7   BANK8   BANK9  BANK10  BANK1
      +1  BANK12  BANK13  BANK14  BANK15
  2464 ;;      Params:         0       0       0       0       0       0       0       0       0       0       0       0       
      +0       0       0       0       0
  2465 ;;      Locals:         0       0       0       0       0       0       0       0       0       0       0       0       
      +0       0       0       0       0
  2466 ;;      Temps:          0       0       0       0       0       0       0       0       0       0       0       0       
      +0       0       0       0       0
  2467 ;;      Totals:         0       0       0       0       0       0       0       0       0       0       0       0       
      +0       0       0       0       0
  2468 ;;Total ram usage:        0 bytes
  2469 ;; Hardware stack levels used:    1
  2470 ;; This function calls:
  2471 ;;		Nothing
  2472 ;; This function is called by:
  2473 ;;		_SYSTEM_Initialize
  2474 ;; This function uses a non-reentrant model
  2475 ;;
  2476                           
  2477                           	psect	text21
  2478  00172A                     __ptext21:
  2479                           	opt callstack 0
  2480  00172A                     _EPWM2_Initialize:
  2481                           	opt callstack 29
  2482  00172A                     
  2483                           ;mcc_generated_files/epwm2.c: 69:  CCP2CON = 0x1C;
  2484  00172A  0E1C               	movlw	28
  2485  00172C  6E66               	movwf	102,c	;volatile
  2486                           
  2487                           ;mcc_generated_files/epwm2.c: 72:  ECCP2AS = 0x00;
  2488  00172E  0E00               	movlw	0
  2489  001730  6E64               	movwf	100,c	;volatile
  2490                           
  2491                           ;mcc_generated_files/epwm2.c: 75:  PWM2CON = 0x80;
  2492  001732  0E80               	movlw	128
  2493  001734  6E65               	movwf	101,c	;volatile
  2494                           
  2495                           ;mcc_generated_files/epwm2.c: 78:  PSTR2CON = 0x01;
  2496  001736  0E01               	movlw	1
  2497  001738  6E63               	movwf	99,c	;volatile
  2498                           
  2499                           ;mcc_generated_files/epwm2.c: 81:  CCPR2H = 0x00;
  2500  00173A  0E00               	movlw	0
  2501  00173C  6E68               	movwf	104,c	;volatile
  2502                           
  2503                           ;mcc_generated_files/epwm2.c: 84:  CCPR2L = 0x00;
  2504  00173E  0E00               	movlw	0
  2505  001740  6E67               	movwf	103,c	;volatile
  2506                           
  2507                           ;mcc_generated_files/epwm2.c: 87:  CCPTMRS0bits.C2TSEL = 0x0;
  2508  001742  0EE7               	movlw	-25
  2509  001744  010F               	movlb	15	; () banked
  2510  001746  1749               	andwf	73,f,b	;volatile
  2511  001748                     
  2512                           ; BSR set to: 15
  2513  001748  0012               	return		;funcret
  2514  00174A                     __end_of_EPWM2_Initialize:
  2515                           	opt callstack 0
  2516                           
  2517 ;; *************** function _EPWM1_Initialize *****************
  2518 ;; Defined at:
  2519 ;;		line 64 in file "mcc_generated_files/epwm1.c"
  2520 ;; Parameters:    Size  Location     Type
  2521 ;;		None
  2522 ;; Auto vars:     Size  Location     Type
  2523 ;;		None
  2524 ;; Return value:  Size  Location     Type
  2525 ;;                  1    wreg      void 
  2526 ;; Registers used:
  2527 ;;		wreg, status,2
  2528 ;; Tracked objects:
  2529 ;;		On entry : 0/0
  2530 ;;		On exit  : 0/0
  2531 ;;		Unchanged: 0/0
  2532 ;; Data sizes:     COMRAM   BANK0   BANK1   BANK2   BANK3   BANK4   BANK5   BANK6   BANK7   BANK8   BANK9  BANK10  BANK1
      +1  BANK12  BANK13  BANK14  BANK15
  2533 ;;      Params:         0       0       0       0       0       0       0       0       0       0       0       0       
      +0       0       0       0       0
  2534 ;;      Locals:         0       0       0       0       0       0       0       0       0       0       0       0       
      +0       0       0       0       0
  2535 ;;      Temps:          0       0       0       0       0       0       0       0       0       0       0       0       
      +0       0       0       0       0
  2536 ;;      Totals:         0       0       0       0       0       0       0       0       0       0       0       0       
      +0       0       0       0       0
  2537 ;;Total ram usage:        0 bytes
  2538 ;; Hardware stack levels used:    1
  2539 ;; This function calls:
  2540 ;;		Nothing
  2541 ;; This function is called by:
  2542 ;;		_SYSTEM_Initialize
  2543 ;; This function uses a non-reentrant model
  2544 ;;
  2545                           
  2546                           	psect	text22
  2547  00174A                     __ptext22:
  2548                           	opt callstack 0
  2549  00174A                     _EPWM1_Initialize:
  2550                           	opt callstack 29
  2551  00174A                     
  2552                           ;mcc_generated_files/epwm1.c: 69:  CCP1CON = 0x1C;
  2553  00174A  0E1C               	movlw	28
  2554  00174C  6EBD               	movwf	189,c	;volatile
  2555                           
  2556                           ;mcc_generated_files/epwm1.c: 72:  ECCP1AS = 0x00;
  2557  00174E  0E00               	movlw	0
  2558  001750  6EB6               	movwf	182,c	;volatile
  2559                           
  2560                           ;mcc_generated_files/epwm1.c: 75:  PWM1CON = 0x80;
  2561  001752  0E80               	movlw	128
  2562  001754  6EB7               	movwf	183,c	;volatile
  2563                           
  2564                           ;mcc_generated_files/epwm1.c: 78:  PSTR1CON = 0x01;
  2565  001756  0E01               	movlw	1
  2566  001758  6EB9               	movwf	185,c	;volatile
  2567                           
  2568                           ;mcc_generated_files/epwm1.c: 81:  CCPR1H = 0x00;
  2569  00175A  0E00               	movlw	0
  2570  00175C  6EBF               	movwf	191,c	;volatile
  2571                           
  2572                           ;mcc_generated_files/epwm1.c: 84:  CCPR1L = 0x00;
  2573  00175E  0E00               	movlw	0
  2574  001760  6EBE               	movwf	190,c	;volatile
  2575                           
  2576                           ;mcc_generated_files/epwm1.c: 87:  CCPTMRS0bits.C1TSEL = 0x0;
  2577  001762  0EFC               	movlw	-4
  2578  001764  010F               	movlb	15	; () banked
  2579  001766  1749               	andwf	73,f,b	;volatile
  2580  001768                     
  2581                           ; BSR set to: 15
  2582  001768  0012               	return		;funcret
  2583  00176A                     __end_of_EPWM1_Initialize:
  2584                           	opt callstack 0
  2585                           
  2586 ;; *************** function _EUSART1_is_rx_ready *****************
  2587 ;; Defined at:
  2588 ;;		line 99 in file "mcc_generated_files/eusart1.c"
  2589 ;; Parameters:    Size  Location     Type
  2590 ;;		None
  2591 ;; Auto vars:     Size  Location     Type
  2592 ;;		None
  2593 ;; Return value:  Size  Location     Type
  2594 ;;                  1    wreg      _Bool 
  2595 ;; Registers used:
  2596 ;;		wreg
  2597 ;; Tracked objects:
  2598 ;;		On entry : 0/0
  2599 ;;		On exit  : 0/0
  2600 ;;		Unchanged: 0/0
  2601 ;; Data sizes:     COMRAM   BANK0   BANK1   BANK2   BANK3   BANK4   BANK5   BANK6   BANK7   BANK8   BANK9  BANK10  BANK1
      +1  BANK12  BANK13  BANK14  BANK15
  2602 ;;      Params:         0       0       0       0       0       0       0       0       0       0       0       0       
      +0       0       0       0       0
  2603 ;;      Locals:         0       0       0       0       0       0       0       0       0       0       0       0       
      +0       0       0       0       0
  2604 ;;      Temps:          0       0       0       0       0       0       0       0       0       0       0       0       
      +0       0       0       0       0
  2605 ;;      Totals:         0       0       0       0       0       0       0       0       0       0       0       0       
      +0       0       0       0       0
  2606 ;;Total ram usage:        0 bytes
  2607 ;; Hardware stack levels used:    1
  2608 ;; This function calls:
  2609 ;;		Nothing
  2610 ;; This function is called by:
  2611 ;;		_main
  2612 ;; This function uses a non-reentrant model
  2613 ;;
  2614                           
  2615                           	psect	text23
  2616  0017BA                     __ptext23:
  2617                           	opt callstack 0
  2618  0017BA                     _EUSART1_is_rx_ready:
  2619                           	opt callstack 30
  2620  0017BA                     
  2621                           ;mcc_generated_files/eusart1.c: 101:     return (_Bool)(PIR1bits.RC1IF);
  2622  0017BA  BA9E               	btfsc	158,5,c	;volatile
  2623  0017BC  EFE2  F00B         	goto	u171
  2624  0017C0  EFE5  F00B         	goto	u170
  2625  0017C4                     u171:
  2626  0017C4  0E01               	movlw	1
  2627  0017C6  EFE6  F00B         	goto	u176
  2628  0017CA                     u170:
  2629  0017CA  0E00               	movlw	0
  2630  0017CC                     u176:
  2631  0017CC  0012               	return		;funcret
  2632  0017CE                     __end_of_EUSART1_is_rx_ready:
  2633                           	opt callstack 0
  2634                           
  2635 ;; *************** function _EUSART1_Read *****************
  2636 ;; Defined at:
  2637 ;;		line 113 in file "mcc_generated_files/eusart1.c"
  2638 ;; Parameters:    Size  Location     Type
  2639 ;;		None
  2640 ;; Auto vars:     Size  Location     Type
  2641 ;;		None
  2642 ;; Return value:  Size  Location     Type
  2643 ;;                  1    wreg      unsigned char 
  2644 ;; Registers used:
  2645 ;;		wreg, status,2
  2646 ;; Tracked objects:
  2647 ;;		On entry : 0/0
  2648 ;;		On exit  : 0/0
  2649 ;;		Unchanged: 0/0
  2650 ;; Data sizes:     COMRAM   BANK0   BANK1   BANK2   BANK3   BANK4   BANK5   BANK6   BANK7   BANK8   BANK9  BANK10  BANK1
      +1  BANK12  BANK13  BANK14  BANK15
  2651 ;;      Params:         0       0       0       0       0       0       0       0       0       0       0       0       
      +0       0       0       0       0
  2652 ;;      Locals:         0       0       0       0       0       0       0       0       0       0       0       0       
      +0       0       0       0       0
  2653 ;;      Temps:          0       0       0       0       0       0       0       0       0       0       0       0       
      +0       0       0       0       0
  2654 ;;      Totals:         0       0       0       0       0       0       0       0       0       0       0       0       
      +0       0       0       0       0
  2655 ;;Total ram usage:        0 bytes
  2656 ;; Hardware stack levels used:    1
  2657 ;; This function calls:
  2658 ;;		Nothing
  2659 ;; This function is called by:
  2660 ;;		_main
  2661 ;;		_getch
  2662 ;; This function uses a non-reentrant model
  2663 ;;
  2664                           
  2665                           	psect	text24
  2666  0016BA                     __ptext24:
  2667                           	opt callstack 0
  2668  0016BA                     _EUSART1_Read:
  2669                           	opt callstack 30
  2670  0016BA                     l132:
  2671                           
  2672                           ;mcc_generated_files/eusart1.c: 115:     while(!PIR1bits.RC1IF)
  2673  0016BA  AA9E               	btfss	158,5,c	;volatile
  2674  0016BC  EF62  F00B         	goto	u181
  2675  0016C0  EF64  F00B         	goto	u180
  2676  0016C4                     u181:
  2677  0016C4  EF5D  F00B         	goto	l132
  2678  0016C8                     u180:
  2679  0016C8                     
  2680                           ;mcc_generated_files/eusart1.c: 119:     eusart1RxLastError.status = 0;
  2681  0016C8  0E00               	movlw	0
  2682  0016CA  6E52               	movwf	_eusart1RxLastError^0,c	;volatile
  2683  0016CC                     
  2684                           ;mcc_generated_files/eusart1.c: 121:     if(1 == RCSTA1bits.OERR)
  2685  0016CC  A2AB               	btfss	171,1,c	;volatile
  2686  0016CE  EF6B  F00B         	goto	u191
  2687  0016D2  EF6D  F00B         	goto	u190
  2688  0016D6                     u191:
  2689  0016D6  EF6F  F00B         	goto	l1269
  2690  0016DA                     u190:
  2691  0016DA                     
  2692                           ;mcc_generated_files/eusart1.c: 122:     {;mcc_generated_files/eusart1.c: 125:         R
      +                          CSTA1bits.CREN = 0;
  2693  0016DA  98AB               	bcf	171,4,c	;volatile
  2694                           
  2695                           ;mcc_generated_files/eusart1.c: 126:         RCSTA1bits.CREN = 1;
  2696  0016DC  88AB               	bsf	171,4,c	;volatile
  2697  0016DE                     l1269:
  2698                           
  2699                           ;mcc_generated_files/eusart1.c: 129:     return RCREG1;
  2700  0016DE  50AE               	movf	174,w,c	;volatile
  2701  0016E0  0012               	return		;funcret
  2702  0016E2                     __end_of_EUSART1_Read:
  2703                           	opt callstack 0
  2704                           
  2705                           	psect	rparam
  2706  0000                     tosu	equ	0xFFF
  2707                           tosh	equ	0xFFE
  2708                           tosl	equ	0xFFD
  2709                           stkptr	equ	0xFFC
  2710                           pclatu	equ	0xFFB
  2711                           pclath	equ	0xFFA
  2712                           pcl	equ	0xFF9
  2713                           tblptru	equ	0xFF8
  2714                           tblptrh	equ	0xFF7
  2715                           tblptrl	equ	0xFF6
  2716                           tablat	equ	0xFF5
  2717                           prodh	equ	0xFF4
  2718                           prodl	equ	0xFF3
  2719                           indf0	equ	0xFEF
  2720                           postinc0	equ	0xFEE
  2721                           postdec0	equ	0xFED
  2722                           preinc0	equ	0xFEC
  2723                           plusw0	equ	0xFEB
  2724                           fsr0h	equ	0xFEA
  2725                           fsr0l	equ	0xFE9
  2726                           wreg	equ	0xFE8
  2727                           indf1	equ	0xFE7
  2728                           postinc1	equ	0xFE6
  2729                           postdec1	equ	0xFE5
  2730                           preinc1	equ	0xFE4
  2731                           plusw1	equ	0xFE3
  2732                           fsr1h	equ	0xFE2
  2733                           fsr1l	equ	0xFE1
  2734                           bsr	equ	0xFE0
  2735                           indf2	equ	0xFDF
  2736                           postinc2	equ	0xFDE
  2737                           postdec2	equ	0xFDD
  2738                           preinc2	equ	0xFDC
  2739                           plusw2	equ	0xFDB
  2740                           fsr2h	equ	0xFDA
  2741                           fsr2l	equ	0xFD9
  2742                           status	equ	0xFD8


Data Sizes:
    Strings     228
    Constant    0
    Data        0
    BSS         41
    Persistent  10
    Stack       0

Auto Spaces:
    Space          Size  Autos    Used
    COMRAM           95     63      82
    BANK0           160      0      32
    BANK1           256      0       0
    BANK2           256      0       0
    BANK3           256      0       0
    BANK4           256      0       0
    BANK5           256      0       0
    BANK6           256      0       0
    BANK7           256      0       0
    BANK8           256      0       0
    BANK9           256      0       0
    BANK10          256      0       0
    BANK11          256      0       0
    BANK12          256      0       0
    BANK13          256      0       0
    BANK14          256      0       0
    BANK15           56      0       0

Pointer List with Targets:

    strlen@s	PTR const unsigned char  size(2) Largest target is 32
		 -> dbuf(BANK0[32]), 

    strlen@a	PTR const unsigned char  size(2) Largest target is 32
		 -> dbuf(BANK0[32]), 

    printf@fmt	PTR const unsigned char  size(2) Largest target is 52
		 -> STR_14(CODE[17]), STR_13(CODE[2]), STR_12(CODE[2]), STR_11(CODE[13]), 
		 -> STR_10(CODE[52]), STR_9(CODE[25]), STR_8(CODE[22]), STR_7(CODE[7]), 
		 -> STR_6(CODE[15]), STR_5(CODE[52]), STR_4(CODE[5]), STR_3(CODE[26]), 
		 -> STR_2(CODE[26]), STR_1(CODE[20]), 

    printf@ap	PTR void [1] size(2) Largest target is 2
		 -> ?_printf(COMRAM[2]), 

    fputs@s	PTR const unsigned char  size(2) Largest target is 32
		 -> dbuf(BANK0[32]), 

    fputs@fp	PTR struct _IO_FILE size(2) Largest target is 0
		 -> NULL(NULL[0]), 

    S1318_IO_FILE$buffer	PTR unsigned char  size(2) Largest target is 0

    fputc@fp.buffer	PTR unsigned char  size(2) Largest target is 0

    fputc@fp	PTR struct _IO_FILE size(2) Largest target is 0
		 -> NULL(NULL[0]), 

    vfprintf@ap	PTR PTR void  size(2) Largest target is 2
		 -> printf@ap(COMRAM[2]), 

    vfprintf@fp	PTR struct _IO_FILE size(2) Largest target is 0
		 -> NULL(NULL[0]), 

    vfprintf@fmt	PTR const unsigned char  size(2) Largest target is 52
		 -> STR_14(CODE[17]), STR_13(CODE[2]), STR_12(CODE[2]), STR_11(CODE[13]), 
		 -> STR_10(CODE[52]), STR_9(CODE[25]), STR_8(CODE[22]), STR_7(CODE[7]), 
		 -> STR_6(CODE[15]), STR_5(CODE[52]), STR_4(CODE[5]), STR_3(CODE[26]), 
		 -> STR_2(CODE[26]), STR_1(CODE[20]), 

    vfprintf@cfmt	PTR unsigned char  size(2) Largest target is 52
		 -> STR_14(CODE[17]), STR_13(CODE[2]), STR_12(CODE[2]), STR_11(CODE[13]), 
		 -> STR_10(CODE[52]), STR_9(CODE[25]), STR_8(CODE[22]), STR_7(CODE[7]), 
		 -> STR_6(CODE[15]), STR_5(CODE[52]), STR_4(CODE[5]), STR_3(CODE[26]), 
		 -> STR_2(CODE[26]), STR_1(CODE[20]), 

    vfpfcnvrt@fp	PTR struct _IO_FILE size(2) Largest target is 0
		 -> NULL(NULL[0]), 

    vfpfcnvrt@ap	PTR PTR void  size(2) Largest target is 2
		 -> printf@ap(COMRAM[2]), 

    vfpfcnvrt@fmt	PTR PTR unsigned char  size(2) Largest target is 2
		 -> vfprintf@cfmt(COMRAM[2]), 

    ctoa@fp	PTR struct _IO_FILE size(2) Largest target is 0
		 -> NULL(NULL[0]), 

    pad@fp	PTR struct _IO_FILE size(2) Largest target is 0
		 -> NULL(NULL[0]), 

    pad@buf	PTR unsigned char  size(2) Largest target is 32
		 -> dbuf(BANK0[32]), 

    EUSART1_SetErrorHandler@interruptHandler	PTR FTN()void  size(2) Largest target is 1
		 -> EUSART1_DefaultErrorHandler(), 

    EUSART1_ErrorHandler	PTR FTN()void  size(2) Largest target is 1
		 -> Absolute function(), EUSART1_DefaultErrorHandler(), 

    EUSART1_SetOverrunErrorHandler@interruptHandler	PTR FTN()void  size(2) Largest target is 1
		 -> EUSART1_DefaultOverrunErrorHandler(), 

    EUSART1_OverrunErrorHandler	PTR FTN()void  size(2) Largest target is 1
		 -> Absolute function(), EUSART1_DefaultOverrunErrorHandler(), 

    EUSART1_SetFramingErrorHandler@interruptHandler	PTR FTN()void  size(2) Largest target is 1
		 -> EUSART1_DefaultFramingErrorHandler(), 

    EUSART1_FramingErrorHandler	PTR FTN()void  size(2) Largest target is 1
		 -> Absolute function(), EUSART1_DefaultFramingErrorHandler(), 


Critical Paths under _main in COMRAM

    _main->_printf
    _printf->_vfprintf
    _vfprintf->_vfpfcnvrt
    _vfpfcnvrt->_ctoa
    _ctoa->_pad
    _pad->_fputs
    _fputs->_fputc
    _fputc->_putch
    _putch->_EUSART1_Write
    _SYSTEM_Initialize->_TMR0_Initialize
    _EUSART1_Initialize->_EUSART1_SetErrorHandler
    _EUSART1_Initialize->_EUSART1_SetFramingErrorHandler
    _EUSART1_Initialize->_EUSART1_SetOverrunErrorHandler

Critical Paths under _main in BANK0

    None.

Critical Paths under _main in BANK1

    None.

Critical Paths under _main in BANK2

    None.

Critical Paths under _main in BANK3

    None.

Critical Paths under _main in BANK4

    None.

Critical Paths under _main in BANK5

    None.

Critical Paths under _main in BANK6

    None.

Critical Paths under _main in BANK7

    None.

Critical Paths under _main in BANK8

    None.

Critical Paths under _main in BANK9

    None.

Critical Paths under _main in BANK10

    None.

Critical Paths under _main in BANK11

    None.

Critical Paths under _main in BANK12

    None.

Critical Paths under _main in BANK13

    None.

Critical Paths under _main in BANK14

    None.

Critical Paths under _main in BANK15

    None.

Call Graph Tables:

 ---------------------------------------------------------------------------------
 (Depth) Function   	        Calls       Base Space   Used Autos Params    Refs
 ---------------------------------------------------------------------------------
 (0) _main                                                 4     4      0    6136
                                             59 COMRAM     4     4      0
                       _EUSART1_Read
                _EUSART1_is_rx_ready
                  _SYSTEM_Initialize
                             _printf
 ---------------------------------------------------------------------------------
 (1) _printf                                               8     4      4    5705
                                             51 COMRAM     8     4      4
                           _vfprintf
 ---------------------------------------------------------------------------------
 (2) _vfprintf                                             8     2      6    4587
                                             43 COMRAM     8     2      6
                          _vfpfcnvrt
 ---------------------------------------------------------------------------------
 (3) _vfpfcnvrt                                           42    36      6    4234
                                             34 COMRAM     9     3      6
                               _ctoa
                              _fputc
 ---------------------------------------------------------------------------------
 (4) _ctoa                                                 7     4      3    2885
                                             29 COMRAM     5     2      3
                                _pad
 ---------------------------------------------------------------------------------
 (5) _pad                                                 11     5      6    2665
                                             18 COMRAM    11     5      6
                              _fputc
                              _fputs
                             _strlen
 ---------------------------------------------------------------------------------
 (6) _strlen                                               4     2      2     166
                                              0 COMRAM     4     2      2
 ---------------------------------------------------------------------------------
 (6) _fputs                                                7     3      4    1213
                                             11 COMRAM     7     3      4
                              _fputc
 ---------------------------------------------------------------------------------
 (4) _fputc                                                9     5      4     812
                                              2 COMRAM     9     5      4
                              _putch
 ---------------------------------------------------------------------------------
 (5) _putch                                                1     1      0      44
                                              1 COMRAM     1     1      0
                      _EUSART1_Write
 ---------------------------------------------------------------------------------
 (6) _EUSART1_Write                                        1     1      0      22
                                              0 COMRAM     1     1      0
 ---------------------------------------------------------------------------------
 (1) _SYSTEM_Initialize                                    0     0      0     294
                   _EPWM1_Initialize
                   _EPWM2_Initialize
                 _EUSART1_Initialize
              _OSCILLATOR_Initialize
             _PIN_MANAGER_Initialize
                    _TMR0_Initialize
                    _TMR1_Initialize
                    _TMR2_Initialize
 ---------------------------------------------------------------------------------
 (2) _TMR2_Initialize                                      0     0      0       0
 ---------------------------------------------------------------------------------
 (2) _TMR1_Initialize                                      0     0      0       0
 ---------------------------------------------------------------------------------
 (2) _TMR0_Initialize                                      2     2      0       0
                                              0 COMRAM     2     2      0
 ---------------------------------------------------------------------------------
 (2) _PIN_MANAGER_Initialize                               0     0      0       0
 ---------------------------------------------------------------------------------
 (2) _OSCILLATOR_Initialize                                0     0      0       0
 ---------------------------------------------------------------------------------
 (2) _EUSART1_Initialize                                   0     0      0     294
            _EUSART1_SetErrorHandler
     _EUSART1_SetFramingErrorHandler
     _EUSART1_SetOverrunErrorHandler
 ---------------------------------------------------------------------------------
 (3) _EUSART1_SetOverrunErrorHandler                       2     0      2      98
                                              0 COMRAM     2     0      2
 ---------------------------------------------------------------------------------
 (3) _EUSART1_SetFramingErrorHandler                       2     0      2      98
                                              0 COMRAM     2     0      2
 ---------------------------------------------------------------------------------
 (3) _EUSART1_SetErrorHandler                              2     0      2      98
                                              0 COMRAM     2     0      2
 ---------------------------------------------------------------------------------
 (2) _EPWM2_Initialize                                     0     0      0       0
 ---------------------------------------------------------------------------------
 (2) _EPWM1_Initialize                                     0     0      0       0
 ---------------------------------------------------------------------------------
 (1) _EUSART1_is_rx_ready                                  0     0      0       0
 ---------------------------------------------------------------------------------
 (1) _EUSART1_Read                                         0     0      0       0
 ---------------------------------------------------------------------------------
 Estimated maximum stack depth 6
 ---------------------------------------------------------------------------------

 Call Graph Graphs:

 _main (ROOT)
   _EUSART1_Read
   _EUSART1_is_rx_ready
   _SYSTEM_Initialize
     _EPWM1_Initialize
     _EPWM2_Initialize
     _EUSART1_Initialize
       _EUSART1_SetErrorHandler
       _EUSART1_SetFramingErrorHandler
       _EUSART1_SetOverrunErrorHandler
     _OSCILLATOR_Initialize
     _PIN_MANAGER_Initialize
     _TMR0_Initialize
     _TMR1_Initialize
     _TMR2_Initialize
   _printf
     _vfprintf
       _vfpfcnvrt
         _ctoa
           _pad
             _fputc
               _putch
                 _EUSART1_Write
             _fputs
               _fputc
                 _putch
                   _EUSART1_Write
             _strlen
         _fputc
           _putch
             _EUSART1_Write

 Address spaces:
Name               Size   Autos  Total    Cost      Usage
BIGRAM             F37      0       0      37        0.0%
EEDATA             400      0       0       0        0.0%
BITBANK14          100      0       0      33        0.0%
BANK14             100      0       0      34        0.0%
BITBANK13          100      0       0      31        0.0%
BANK13             100      0       0      32        0.0%
BITBANK12          100      0       0      29        0.0%
BANK12             100      0       0      30        0.0%
BITBANK11          100      0       0      27        0.0%
BANK11             100      0       0      28        0.0%
BITBANK10          100      0       0      25        0.0%
BANK10             100      0       0      26        0.0%
BITBANK9           100      0       0      23        0.0%
BANK9              100      0       0      24        0.0%
BITBANK8           100      0       0      21        0.0%
BANK8              100      0       0      22        0.0%
BITBANK7           100      0       0      19        0.0%
BANK7              100      0       0      20        0.0%
BITBANK6           100      0       0      17        0.0%
BANK6              100      0       0      18        0.0%
BITBANK5           100      0       0      15        0.0%
BANK5              100      0       0      16        0.0%
BITBANK4           100      0       0      13        0.0%
BANK4              100      0       0      14        0.0%
BITBANK3           100      0       0      10        0.0%
BANK3              100      0       0      11        0.0%
BITBANK2           100      0       0       8        0.0%
BANK2              100      0       0       9        0.0%
BITBANK1           100      0       0       6        0.0%
BANK1              100      0       0       7        0.0%
BITBANK0            A0      0       0       4        0.0%
BANK0               A0      0      20       5       20.0%
BITCOMRAM           5F      0       0       0        0.0%
COMRAM              5F     3F      52       1       86.3%
BITBANK15           38      0       0      35        0.0%
BANK15              38      0       0      36        0.0%
BITSFR_1             0      0       0     200        0.0%
SFR_1                0      0       0     200        0.0%
BITSFR               0      0       0     200        0.0%
SFR                  0      0       0     200        0.0%
STACK                0      0       0       2        0.0%
NULL                 0      0       0       0        0.0%
ABS                  0      0      72      12        0.0%
DATA                 0      0      72       3        0.0%
CODE                 0      0       0       0        0.0%


Microchip Technology PIC18 Macro Assembler V2.10 build 88905656 
Symbol Table                                                                                   Wed Apr 15 19:46:13 2020

                                            l13 17DC                                              l49 1768  
                                            l69 1748                                 _timer0ReloadVal 0042  
                                  __CFG_CP0$OFF 000000                                    __CFG_CP1$OFF 000000  
                                  __CFG_CP2$OFF 000000                                    __CFG_CP3$OFF 000000  
                                   __CFG_LVP$ON 000000                                             l123 17CC  
                                           l115 162C                                             l132 16BA  
                                           l221 1690                                             l142 17B8  
                                           l136 16E0                                             l160 1808  
                                           l163 17FE                                             l139 17A6  
                                           l148 17F4                                             l325 131A  
                                           l166 1812                                             l239 16B8  
                                           l191 1728                                             l361 145A  
                                           l194 17EA                                             l356 13DE  
                                           l380 1550                                             l373 1248  
                                           l278 17A2                                             l359 1420  
                                           l368 15AA                                             l379 1548  
                                  __CFG_CPB$OFF 000000                                             u300 1480  
                                           u301 147C                                             u310 14A8  
                                           u311 14A4                                             u320 14DE  
                                           u400 110C                                             u321 14DA  
                                           u401 1108                                             u170 17CA  
                                           u330 15EE                                             u410 1154  
                                           u171 17C4                                             u331 15EA  
                                           u411 1150                                             u180 16C8  
                                           u340 1656                                             u420 11C8  
                                           u181 16C4                                             u341 1652  
                                           u421 11C4                                             u190 16DA  
                                           u350 13A8                                             u430 1548  
                                           _PR2 000FBB                                             u191 16D6  
                                           u351 13A4                                             u431 1544  
                                           u176 17CC                                             u280 17B4  
                                           u360 13CA                                             u440 1292  
                                           u281 17B0                                             u361 13C6  
                                           u441 128E                                             u290 146E  
                                           u370 1420                                             u450 131A  
                                  __CFG_CPD$OFF 000000                                             u291 146A  
                                           u371 141C                                             u451 1316  
                                           u380 142E                                             u460 1342  
                                           u381 142A                                             u461 133E  
                                           u390 1564                                             u391 1560  
                               _timer1ReloadVal 0040                                             _pad 139A  
                               _TMR2_Initialize 17CE                                             wreg 000FE8  
                                    _TXSTA1bits 000FAC                        __end_of_EPWM2_Initialize 174A  
                                          l1211 17D6                                            l1213 174A  
                                          l1215 172A                                            l1231 17DE  
                                          l1241 1694                                            l1233 1788  
                                          l1209 17CE                                            l1081 1706  
                                          l1066 14F0                                            l1074 15EE  
                                          l1227 1664                                            l1243 169C  
                                          l1235 1794                                            l1261 16BA  
                                          l1229 168E                                            l1245 16B2  
                                          l1237 179C                                            l1501 13EA  
                                          l1263 16C8                                            l1247 16B4  
                                          l1239 1692                                            l1087 1662  
                                          l1503 13FE                                            l1265 16CC  
                                          l1257 17BA                                            l1505 1402  
                                          l1521 1580                                            l1513 1552  
                                          l1267 16DA                                            l1531 180A  
                                          l1507 142E                                            l1523 1586  
                                          l1515 1564                                            l1611 1272  
                                          l1603 124A                                            l1269 16DE  
                                          l1453 17A6                                            l1461 146E  
                                          l1509 1442                                            l1517 1570  
                                          l1541 112E                                            l1533 10E6  
                                          l1621 12F8                                            l1613 127E  
                                          l1605 124E                                            l1527 1800  
                                          l1455 17B4                                            l1463 1480  
                                          l1519 157C                                            l1551 11C8  
                                          l1543 1154                                            l1535 110C  
                                          l1631 130A                                            l1615 1292  
                                          l1607 125A                                            l1529 17F6  
                                          l1457 17EE                                            l1465 148A  
                                          l1473 15AC                                            l1481 162E  
                                          l1561 1204                                            l1553 11D6  
                                          l1545 1186                                            l1537 111A  
                                          l1641 1330                                            l1633 1320  
                                          l1617 129C                                            l1609 1266  
                                          l1467 14A8                                            l1459 145C  
                                          l1475 15B8                                            l1483 163A  
                                          l1491 139A                                            l1555 11EA  
                                          l1539 112A                                            l1643 1332  
                                          l1627 12FC                                            l1619 12E8  
                                          l1581 1628                                            l1573 15F0  
                                          l1469 14DE                                            l1477 15CA  
                                          l1485 163E                                            l1493 13A8  
                                          l1549 11A2                                            l1565 1210  
                                          l1645 1346                                            l1629 1308  
                                          l1575 1604                                            l1591 1708  
                                          l1479 15CE                                            l1487 1656  
                                          l1495 13BC                                            l1567 1236  
                                          l1559 11F6                                            l1583 14F2  
                                          l1639 1324                                            l1577 1610  
                                          l1593 1720                                            l1497 13CA  
                                          l1585 14FA                                            l1649 135C  
                                          l1579 161C                                            l1595 1724  
                                          l1499 13D6                                            l1587 1506  
                                          l1675 1370                                            l1589 152A  
                                          l1597 16E2                                            l1599 16EA  
                                          ?_pad 0013                                            STR_1 1098  
                                          STR_2 104F                                            STR_3 1035  
                                          STR_4 10E0                                            STR_5 1001  
                                          STR_6 10BD                                            STR_7 10D9  
                                          STR_8 1082                                            STR_9 1069  
                                          _LATA 000F89                                            _LATB 000F8A  
                                          _LATC 000F8B                                            _TMR1 000FCE  
                                          _TMR2 000FBC                                            _WPUB 000F61  
                                 _EUSART1_Write 17A4                                            _dbuf 0060  
                                          _ctoa 1552                                            _main 124A  
                                 ?_EUSART1_Read 0001                                            _prec 004E  
                                          _nout 004A                                            pad@i 001A  
                                          pad@p 0017                                            fsr1h 000FE2  
                                          fsr2h 000FDA                                            indf2 000FDF  
                                          fsr1l 000FE1                                            pad@w 001C  
                                          fsr2l 000FD9                                   __CFG_BORV$190 000000  
                                          start 0000                                   __CFG_IESO$OFF 000000  
                                  ___param_bank 000000                                           ??_pad 0019  
                       __end_of_TMR0_Initialize 16BA                  __size_of_OSCILLATOR_Initialize 000E  
                 __end_of_OSCILLATOR_Initialize 17EC                                           ?_ctoa 001E  
                                         ?_main 0001                                           STR_10 1001  
                                         STR_11 10CC                                           STR_12 104D  
                                         STR_13 104D                                           STR_14 10AC  
                                         _T0CON 000FD5                                           _T1CON 000FCD  
                                         _T2CON 000FBA                                  __CFG_DEBUG$OFF 000000  
                                  vfpfcnvrt@fmt 0025                                           _TMR0H 000FD7  
                                         _TMR1H 000FCF                                           _TMR0L 000FD6  
                                         _TMR1L 000FCE                                           _TRISA 000F92  
                                         _TRISB 000F93                                           _TRISC 000F94  
                                 __CFG_WRT0$OFF 000000                                   __CFG_WRT1$OFF 000000  
                                 __CFG_WRT2$OFF 000000                                   __CFG_WRT3$OFF 000000  
                                __CFG_EBTR0$OFF 000000                                  __CFG_FCMEN$OFF 000000  
                                __CFG_EBTR1$OFF 000000                                  __CFG_EBTR2$OFF 000000  
                                __CFG_EBTR3$OFF 000000                                   __CFG_WRTB$OFF 000000  
                                 __CFG_WRTC$OFF 000000                                   __CFG_WRTD$OFF 000000  
                                __CFG_EBTRB$OFF 000000                                           _flags 0050  
                                         _fputc 145C                                           _fputs 15AC  
                            __CFG_MCLRE$EXTMCLR 000000                                           pad@fp 0013  
                                         _width 004C                                           ctoa@c 0020  
                                         _putch 17EC                                           ctoa@w 0021  
                                         main@i 003F                                  ?_EUSART1_Write 0001  
                       __end_of_TMR1_Initialize 17A4                                           tablat 000FF5  
                                ??_EUSART1_Read 0001                                           status 000FD8  
                                __CFG_HFOFST$ON 000000              _EUSART1_DefaultFramingErrorHandler 000000  
                                __CFG_PBADEN$ON 000000                                 __initialization 176A  
                                  __end_of_ctoa 15AC                      __end_of_EUSART1_Initialize 162E  
                                  __end_of_main 139A                         __end_of_TMR2_Initialize 17DE  
                                        ??_ctoa 0021                                          ??_main 003C  
                                 __activetblptr 000003                                          ?_fputc 0003  
                                        ?_fputs 000C                                          _CCPR1H 000FBF  
                                        _CCPR2H 000F68                                          _CCPR1L 000FBE  
                                        _CCPR2L 000F67                                          _ANSELA 000F38  
                                        ?_putch 0001                                          _ANSELB 000F39  
                                        _ANSELC 000F3A                                          _T1GCON 000FCC  
                  __size_of_EUSART1_is_rx_ready 0014                                  __CFG_WDTEN$OFF 000000  
                                        _RCREG1 000FAE                                          _RCSTA1 000FAB  
                                        _OSCCON 000FD3                                          _SPBRG1 000FAF  
                                        _TXREG1 000FAD                                          _TXSTA1 000FAC  
                                __CFG_XINST$OFF 000000                                    _CCPTMRS0bits 000F49  
                                  vfprintf@cfmt 0032                                  __CFG_STVREN$ON 000000  
                      ?_EUSART1_SetErrorHandler 0001                                ?_TMR0_Initialize 0001  
                                        clear_0 1770                                          clear_1 177C  
                                        _printf 16E2                                          pad@buf 0015  
              ??_EUSART1_SetOverrunErrorHandler 0003                 ?_EUSART1_SetOverrunErrorHandler 0001  
                                        ctoa@fp 001E                                          _strlen 162E  
                                        fputc@c 0003                                          fputs@c 0010  
                                        fputs@i 0011                                          fputs@s 000C  
                                  __mediumconst 0000                                          tblptrh 000FF7  
                                        tblptrl 000FF6                                          tblptru 000FF8  
                              __end_of_vfprintf 1552                                 ??_EUSART1_Write 0001  
                              ?_TMR1_Initialize 0001                               _SYSTEM_Initialize 1708  
                                    __accesstop 0060                         __end_of__initialization 1782  
                            ?_SYSTEM_Initialize 0001                                   ___rparam_used 000001  
                             ?_EPWM1_Initialize 0001                                  __pcstackCOMRAM 0001  
                           ??_SYSTEM_Initialize 0003                              ??_EPWM1_Initialize 0001  
                                 __end_of_fputc 14F2                                   __end_of_fputs 15F0  
                                 __end_of_putch 17F6                                ?_TMR2_Initialize 0001  
                          __end_of_EUSART1_Read 16E2                               ?_EPWM2_Initialize 0001  
                                       ??_fputc 0007                       __end_of_SYSTEM_Initialize 172A  
                                       ??_fputs 0010                              ??_EPWM2_Initialize 0001  
                                       ??_putch 0002                                      __pbssBANK0 0060  
                               __CFG_PLLCFG$OFF 000000                                      __pnvCOMRAM 0040  
               __end_of_EUSART1_SetErrorHandler 1814                              __CFG_CCP2MX$PORTC1 000000  
                            __CFG_CCP3MX$PORTB5 000000                                         _CCP1CON 000FBD  
                                       _CCP2CON 000F66                                         _ECCP1AS 000FB6  
                                       _ECCP2AS 000F64                                         ?_printf 0034  
                                       ?_strlen 0001          __end_of_EUSART1_SetFramingErrorHandler 180A  
       __size_of_EUSART1_SetFramingErrorHandler 000A                  _EUSART1_SetFramingErrorHandler 1800  
                                       _OSCCON2 000FD2                              __size_of_vfpfcnvrt 0164  
                                       _OSCTUNE 000F9B                                         _PWM1CON 000FB7  
                                       _PWM2CON 000F65                                         _SPBRGH1 000FB0  
                               __CFG_PWRTEN$OFF 000000                                         __Hparam 0000  
                                       __Lparam 0000                                       ?_vfprintf 002C  
                                  __psmallconst 1000                             _EUSART1_is_rx_ready 17BA  
                                       __pcinit 176A                                         __ramtop 1000  
                                       __ptext0 124A                                         __ptext1 16E2  
                                       __ptext2 14F2                                         __ptext3 10E6  
                                       __ptext4 1552                                         __ptext5 139A  
                                       __ptext6 162E                                         __ptext7 15AC  
                                       __ptext8 145C                                         __ptext9 17EC  
                               __size_of_printf 0026                                       _T0CONbits 000FD5  
                               __size_of_strlen 0036                                       _T1CONbits 000FCD  
                         _OSCILLATOR_Initialize 17DE                                       _T2CONbits 000FBA  
                                  __size_of_pad 00C2                              _EUSART1_Initialize 15F0  
                      ??_PIN_MANAGER_Initialize 0001                                         main@cmd 003E  
                    __size_of_SYSTEM_Initialize 0022                            end_of_initialization 1782  
                          ?_EUSART1_is_rx_ready 0001                             ?_EUSART1_Initialize 0001  
                                       fputc@fp 0005                     _EUSART1_OverrunErrorHandler 0046  
                                       fputs@fp 000E                               __end_of_vfpfcnvrt 124A  
                                       postdec2 000FDD                                         postinc0 000FEE  
                                       postinc1 000FE6                                         postinc2 000FDE  
                         __size_of_EUSART1_Read 0028                                      ??_vfprintf 0032  
                          ??_EUSART1_Initialize 0003                                         strlen@a 0003  
                                       strlen@s 0001                __size_of_EUSART1_SetErrorHandler 000A  
                           EUSART1_Write@txData 0001                           ??_EUSART1_is_rx_ready 0001  
                                  _EUSART1_Read 16BA                                     vfpfcnvrt@ap 0027  
                                   vfpfcnvrt@fp 0023                          ?_OSCILLATOR_Initialize 0001  
                                __end_of_printf 1708                                  __end_of_strlen 1664  
                           start_initialization 176A                       __size_of_EPWM1_Initialize 0020  
                      __size_of_TMR0_Initialize 0028                 __size_of_PIN_MANAGER_Initialize 002E  
                                   __end_of_pad 145C                                     putch@txData 0002  
                         __end_of_EUSART1_Write 17BA                       __size_of_EPWM2_Initialize 0020  
                      __size_of_TMR1_Initialize 001C                                     vfprintf@fmt 002E  
                                      ??_printf 0038                                        ??_strlen 0003  
                                   __pbssCOMRAM 004A                        __size_of_TMR2_Initialize 0010  
              ??_EUSART1_SetFramingErrorHandler 0003                 ?_EUSART1_SetFramingErrorHandler 0001  
                        _PIN_MANAGER_Initialize 1664                                __CFG_PRICLKEN$ON 000000  
                             __size_of_vfprintf 0060                                     __smallconst 1000  
                                      _BAUDCON1 000FB8              _EUSART1_DefaultOverrunErrorHandler 000000  
                          _EUSART1_ErrorHandler 0044                         _EUSART1_SetErrorHandler 180A  
                                __size_of_fputc 0096                                  __size_of_fputs 0044  
                                __size_of_putch 000A                               ??_TMR0_Initialize 0001  
       EUSART1_SetErrorHandler@interruptHandler 0001                                        _PIR1bits 000F9E  
                              __CFG_WDTPS$32768 000000                                        _PSTR1CON 000FB9  
                                      _PSTR2CON 000F63                                       _vfpfcnvrt 10E6  
                             ??_TMR1_Initialize 0001                                _EPWM1_Initialize 174A  
                                    vfpfcnvrt@c 002B                                     _INTCON2bits 000FF1  
                             ??_TMR2_Initialize 0001                                        __Hrparam 0000  
                              _EPWM2_Initialize 172A                                      vfprintf@ap 0030  
                                      __Lrparam 0000                                      vfprintf@fp 002C  
                            __CFG_BOREN$SBORDIS 000000                               __CFG_P2BMX$PORTB5 000000  
                       ??_OSCILLATOR_Initialize 0001                     __size_of_EUSART1_Initialize 003E  
                                    ?_vfpfcnvrt 0023                       ??_EUSART1_SetErrorHandler 0003  
                   _EUSART1_DefaultErrorHandler 000000                     __end_of_EUSART1_is_rx_ready 17CE  
                                      __ptext10 17A4                                        __ptext11 1708  
                                      __ptext20 180A                                        __ptext12 17CE  
                                      __ptext21 172A                                        __ptext13 1788  
                                    _T1GCONbits 000FCC                                        __ptext22 174A  
                                      __ptext14 1692                                        __ptext23 17BA  
                                      __ptext15 1664                                        __ptext24 16BA  
                                      __ptext16 17DE                                        __ptext17 15F0  
                                      __ptext18 17F6                                        __ptext19 1800  
                                 __size_of_ctoa 005A                                   __size_of_main 0150  
EUSART1_SetOverrunErrorHandler@interruptHandler 0001                                        _vfprintf 14F2  
                                     printf@fmt 0034                     _EUSART1_FramingErrorHandler 0048  
                                    _INTCONbits 000FF2                         ?_PIN_MANAGER_Initialize 0001  
        __end_of_EUSART1_SetOverrunErrorHandler 1800         __size_of_EUSART1_SetOverrunErrorHandler 000A  
                _EUSART1_SetOverrunErrorHandler 17F6                                      _RCSTA1bits 000FAB  
                                      printf@ap 003A  EUSART1_SetFramingErrorHandler@interruptHandler 0001  
                                   ??_vfpfcnvrt 0029                          __size_of_EUSART1_Write 0016  
                            _eusart1RxLastError 0052                                 _TMR0_Initialize 1692  
                             __CFG_T3CMX$PORTC0 000000                  __end_of_PIN_MANAGER_Initialize 1692  
                             __CFG_FOSC$INTIO67 000000                                 _TMR1_Initialize 1788  
                      __end_of_EPWM1_Initialize 176A  
